(dp0
S'album'
p1
(dp2
S'name'
p3
S'Pure Heroine'
p4
sS'id'
p5
I42464
ssS'description_refs'
p6
(dp7
sS'artist'
p8
S'Lorde'
p9
sS'title'
p10
S'400 Lux'
p11
sS'producers'
p12
(lp13
(dp14
g5
I63216
sg8
VJoel Little
p15
sasS'writers'
p16
(lp17
(dp18
g5
I63216
sg8
VJoel Little
p19
sasS'references'
p20
(dp21
S'song_unannotated'
p22
(lp23
(dp24
g5
S'114153'
p25
sa(dp26
g5
S'215155'
p27
sassS'artist_id'
p28
I36944
sg5
I215157
s.