(dp0
S'album'
p1
(dp2
S'name'
p3
S'Fetty Wap '
p4
sS'id'
p5
I129747
ssS'description_refs'
p6
(dp7
g1
(lp8
(dp9
g3
VFetty Wap 
p10
sg5
S'129747'
p11
sasS'artist'
p12
(lp13
(dp14
g3
VP-Dice
p15
sg5
S'324091'
p16
sassg12
S'Fetty Wap'
p17
sS'title'
p18
S'679'
p19
sS'featured_artists'
p20
(lp21
(dp22
g5
I19635
sg12
VMonty
p23
sa(dp24
g5
I211094
sg12
VRemy Boyz
p25
sa(dp26
g5
I324091
sg12
VP-Dice
p27
sasS'producers'
p28
(lp29
(dp30
g5
I137577
sg12
VPeoples
p31
sasS'writers'
p32
(lp33
(dp34
g5
I211094
sg12
VRemy Boyz
p35
sasS'references'
p36
(dp37
S'song_unannotated'
p38
(lp39
(dp40
g5
S'696428'
p41
sasS'other'
p42
(lp43
(dp44
g5
S'496445'
p45
sg18
VTrap Queen
p46
sa(dp47
g5
S'70324'
p48
sg18
VMercy
p49
sa(dp50
g5
S'299177'
p51
sg18
VDrunk In Love
p52
sasg12
(lp53
(dp54
g3
VPeoples
p55
sg5
S'137577'
p56
sa(dp57
g3
VBig Sean
p58
sg5
S'492'
p59
sa(dp60
g3
VJay Z
p61
sg5
S'2'
p62
sassS'artist_id'
p63
I216609
sg5
I696428
s.