(dp0
S'album'
p1
(dp2
S'name'
p3
S'The Ecleftic 2 Sides II a Book'
p4
sS'id'
p5
I10525
ssS'description_refs'
p6
(dp7
sS'artist'
p8
S'Wyclef Jean'
p9
sS'title'
p10
S'911'
p11
sS'featured_artists'
p12
(lp13
(dp14
g5
I358
sg8
VMary J. Blige
p15
sasS'producers'
p16
(lp17
(dp18
g5
I11191
sg8
VMelky Sedeck
p19
sa(dp20
g5
I29322
sg8
VJerry "Wonda" Duplessis
p21
sasS'references'
p22
(dp23
sS'artist_id'
p24
I467
sg5
I47982
s.