(dp0
S'description_refs'
p1
(dp2
S'song'
p3
(lp4
(dp5
S'title'
p6
VWonderful
p7
sS'id'
p8
S'2399227'
p9
sS'artist'
p10
VTravis Scott
p11
sassS'artist'
p12
S'Travis Scott'
p13
sS'title'
p14
S'A-TEAM'
p15
sS'producers'
p16
(lp17
(dp18
S'id'
p19
I55684
sg12
VAllen Ritter
p20
sasS'references'
p21
(dp22
S'album'
p23
(lp24
(dp25
S'name'
p26
VRodeo
p27
sg19
S'118695'
p28
sasS'song_unannotated'
p29
(lp30
(dp31
S'id'
p32
S'703732'
p33
sasg12
(lp34
(dp35
g26
VTrinidad James
p36
sg19
S'27359'
p37
sa(dp38
g26
VDrake
p39
sg19
S'130'
p40
sasS'song'
p41
(lp42
(dp43
S'artist'
p44
VTravis Scott
p45
sg32
S'499870'
p46
sS'title'
p47
VDrugs You Should Try It
p48
sa(dp49
g44
VTravis Scott
p50
sg32
S'2399227'
p51
sg47
VWonderful
p52
sa(dp53
g44
VTrinidad James
p54
sg32
S'360730'
p55
sg47
VBatman
p56
sassS'artist_id'
p57
I20185
sg19
I2399225
s.