(dp0
S'description_refs'
p1
(dp2
sS'artist'
p3
S'Walter Murphy'
p4
sS'title'
p5
S'A Fifth Of Beethoven - 2007 Remastered Version Saturday Night Fever'
p6
sS'references'
p7
(dp8
sS'artist_id'
p9
I32341
sS'id'
p10
I2205656
s.