(dp0
S'album'
p1
(dp2
S'name'
p3
S'Beauty Behind the Madness'
p4
sS'id'
p5
I127525
ssS'description_refs'
p6
(dp7
g1
(lp8
(dp9
g3
VTrilogy 
p10
sg5
S'21737'
p11
sa(dp12
g3
VKiss Land 
p13
sg5
S'33704'
p14
sasS'song_unannotated'
p15
(lp16
(dp17
g5
S'1913178'
p18
sa(dp19
g5
S'729457'
p20
sasS'song'
p21
(lp22
(dp23
S'artist'
p24
VThe Weeknd
p25
sg5
S'729458'
p26
sS'title'
p27
VCan't Feel My Face
p28
sasg24
(lp29
(dp30
g3
VThe Weeknd
p31
sg5
S'2358'
p32
sa(dp33
g3
VIllangelo
p34
sg5
S'28480'
p35
sassg24
S'The Weeknd'
p36
sg27
S'Acquainted'
p37
sS'producers'
p38
(lp39
(dp40
g5
I51248
sg24
VDanny Boy Styles
p41
sa(dp42
g5
I574528
sg24
VDaHeala
p43
sa(dp44
g5
I34533
sg24
VBen Billions
p45
sa(dp46
g5
I28480
sg24
VIllangelo
p47
sasS'writers'
p48
(lp49
(dp50
g5
I51248
sg24
VDanny Boy Styles
p51
sa(dp52
g5
I34533
sg24
VBen Billions
p53
sa(dp54
g5
I574528
sg24
VDaHeala
p55
sa(dp56
g5
I28480
sg24
VIllangelo
p57
sasS'references'
p58
(dp59
g15
(lp60
(dp61
g5
S'62635'
p62
sa(dp63
g5
S'1913178'
p64
sa(dp65
g5
S'729457'
p66
sa(dp67
g5
S'93457'
p68
sa(dp69
g5
S'5737'
p70
sa(dp71
g5
S'54471'
p72
sa(dp73
g5
S'639914'
p74
sa(dp75
g5
S'501510'
p76
sa(dp77
g5
S'727466'
p78
sa(dp79
g5
S'727466'
p80
sa(dp81
g5
S'460183'
p82
sasg21
(lp83
(dp84
g24
VThe Weeknd
p85
sg5
S'729458'
p86
sg27
VCan't Feel My Face
p87
sa(dp88
g24
VThe Weeknd
p89
sg5
S'729458'
p90
sg27
VCan't Feel My Face
p91
sasS'other'
p92
(lp93
(dp94
g5
S'50236'
p95
sg27
VThe Party & The Afterparty
p96
sasg24
(lp97
(dp98
g3
VMax Martin
p99
sg5
S'27835'
p100
sassS'artist_id'
p101
I2358
sg5
I2273462
s.