(dp0
S'album'
p1
(dp2
S'name'
p3
S'Bangerz'
p4
sS'id'
p5
I43357
ssS'description_refs'
p6
(dp7
sS'artist'
p8
S'Miley Cyrus'
p9
sS'title'
p10
S'Adore You'
p11
sS'references'
p12
(dp13
sS'artist_id'
p14
I805
sg5
I230455
s.