(dp0
S'album'
p1
(dp2
S'name'
p3
S'Ron Pope & the Nighthawks'
p4
sS'id'
p5
I141518
ssS'description_refs'
p6
(dp7
sS'artist'
p8
S'Ron Pope'
p9
sS'title'
p10
S"Ain't No Angel"
p11
sS'references'
p12
(dp13
sS'artist_id'
p14
I13587
sg5
I912179
s.