(dp0
S'album'
p1
(dp2
S'name'
p3
S'Joyride'
p4
sS'id'
p5
I130069
ssS'description_refs'
p6
(dp7
S'song_unannotated'
p8
(lp9
(dp10
g5
S'594280'
p11
sasS'artist'
p12
(lp13
(dp14
g3
VTinashe
p15
sg5
S'25561'
p16
sa(dp17
g3
VChance The Rapper
p18
sg5
S'16751'
p19
sassg12
S'Snakehips'
p20
sS'title'
p21
S'All My Friends'
p22
sS'featured_artists'
p23
(lp24
(dp25
g5
I16751
sg12
VChance The Rapper
p26
sa(dp27
g5
I25561
sg12
VTinashe
p28
sasS'producers'
p29
(lp30
(dp31
g5
I41394
sg12
VCass Lowe
p32
sasS'writers'
p33
(lp34
(dp35
g5
I16751
sg12
VChance The Rapper
p36
sa(dp37
g5
I629038
sg12
VJames David Carter
p38
sa(dp39
g5
I41394
sg12
VCass Lowe
p40
sa(dp41
g5
I629037
sg12
VOliver Dickinson
p42
sasS'references'
p43
(dp44
g8
(lp45
(dp46
g5
S'183358'
p47
sasS'song'
p48
(lp49
(dp50
g12
VWyclef Jean
p51
sg5
S'47967'
p52
sg21
VGone Til November
p53
sasg12
(lp54
(dp55
g3
VWyclef Jean
p56
sg5
S'467'
p57
sassS'artist_id'
p58
I212037
sg5
I2327412
s.