(dp0
S'description_refs'
p1
(dp2
S'song_unannotated'
p3
(lp4
(dp5
S'id'
p6
S'2322014'
p7
sa(dp8
g6
S'2322010'
p9
sa(dp10
g6
S'2322020'
p11
sasS'song'
p12
(lp13
(dp14
S'artist'
p15
VPARTYNEXTDOOR
p16
sg6
S'2322001'
p17
sS'title'
p18
VOVO Freestyle
p19
sa(dp20
g15
VPARTYNEXTDOOR
p21
sg6
S'2322003'
p22
sg18
VSome Of Your Love
p23
sa(dp24
g15
VPARTYNEXTDOOR
p25
sg6
S'2322004'
p26
sg18
VMake It Rain
p27
sa(dp28
g15
VPARTYNEXTDOOR
p29
sg6
S'2322011'
p30
sg18
VWait For You
p31
sasg15
(lp32
(dp33
S'name'
p34
VTy Dolla $ign
p35
sg6
S'25005'
p36
sa(dp37
g34
VRich The Kid
p38
sg6
S'65109'
p39
sassg15
S'PARTYNEXTDOOR'
p40
sg18
S'All I Wanna Know'
p41
sS'references'
p42
(dp43
g3
(lp44
(dp45
g6
S'2263710'
p46
sa(dp47
g6
S'156640'
p48
sasS'other'
p49
(lp50
(dp51
g6
S'2322003'
p52
sg18
VSome Of Your Love
p53
sasg15
(lp54
(dp55
g34
VDrake
p56
sg6
S'130'
p57
sassS'artist_id'
p58
I47131
sg6
I2322009
s.