(dp0
S'description_refs'
p1
(dp2
sS'artist'
p3
S'Ja Rule'
p4
sS'title'
p5
S'Always On Time (Remix)'
p6
sS'featured_artists'
p7
(lp8
(dp9
S'id'
p10
I2675
sg3
VAshanti
p11
sa(dp12
g10
I2
sg3
VJay Z
p13
sasS'references'
p14
(dp15
S'song_unannotated'
p16
(lp17
(dp18
g10
S'23929'
p19
sa(dp20
g10
S'23929'
p21
sassS'artist_id'
p22
I183
sg10
I23955
s.