(dp0
S'album'
p1
(dp2
S'name'
p3
S'Dreamchasers 2'
p4
sS'id'
p5
I14135
ssS'description_refs'
p6
(dp7
sS'artist'
p8
S'Meek Mill'
p9
sS'title'
p10
S'Amen'
p11
sS'featured_artists'
p12
(lp13
(dp14
g5
I278
sg8
VJeremih
p15
sa(dp16
g5
I130
sg8
VDrake
p17
sasS'producers'
p18
(lp19
(dp20
g5
I27638
sg8
VKeY Wane
p21
sa(dp22
g5
I17746
sg8
VJahlil Beats
p23
sasS'references'
p24
(dp25
sS'artist_id'
p26
I1319
sg5
I73301
s.