(dp0
S'description_refs'
p1
(dp2
S'song_unannotated'
p3
(lp4
(dp5
S'id'
p6
S'146878'
p7
sa(dp8
g6
S'1930943'
p9
sasS'artist'
p10
(lp11
(dp12
S'name'
p13
VThe Social Experiment
p14
sg6
S'152276'
p15
sa(dp16
g13
VLido
p17
sg6
S'20576'
p18
sassg10
S'Chance The Rapper'
p19
sS'title'
p20
S'Angels'
p21
sS'featured_artists'
p22
(lp23
(dp24
g6
I35599
sg10
VSaba
p25
sasS'producers'
p26
(lp27
(dp28
g6
I152276
sg10
VThe Social Experiment
p29
sa(dp30
g6
I20576
sg10
VLido
p31
sasS'writers'
p32
(lp33
(dp34
g6
I55396
sg10
VDonnie Trumpet
p35
sa(dp36
g6
I48299
sg10
VNate Fox
p37
sa(dp38
g6
I41489
sg10
VPeter Cottontale
p39
sa(dp40
g6
I20576
sg10
VLido
p41
sa(dp42
g6
I35599
sg10
VSaba
p43
sasS'references'
p44
(dp45
S'album'
p46
(lp47
(dp48
g13
VAcid Rap
p49
sg6
S'29884'
p50
sa(dp51
g13
VAcid Rap
p52
sg6
S'29884'
p53
sa(dp54
g13
VSurf 
p55
sg6
S'125298'
p56
sasg3
(lp57
(dp58
g6
S'146855'
p59
sa(dp60
g6
S'288756'
p61
sasS'other'
p62
(lp63
(dp64
g6
S'72705'
p65
sg20
VJuke Juke
p66
sa(dp67
g6
S'530472'
p68
sg20
VFaneto
p69
sasg10
(lp70
(dp71
g13
VChief Keef
p72
sg6
S'16808'
p73
sa(dp74
g13
VChildish Gambino
p75
sg6
S'1745'
p76
sa(dp77
g13
VKanye West
p78
sg6
S'72'
p79
sa(dp80
g13
VChief Keef
p81
sg6
S'16808'
p82
sassS'artist_id'
p83
I16751
sg6
I2339009
s.