(dp0
S'album'
p1
(dp2
S'name'
p3
S'V'
p4
sS'id'
p5
I105603
ssS'description_refs'
p6
(dp7
S'artist'
p8
(lp9
(dp10
g3
VMaroon 5
p11
sg5
S'13539'
p12
sassg8
S'Maroon 5'
p13
sS'title'
p14
S'Animals'
p15
sS'producers'
p16
(lp17
(dp18
g5
I27836
sg8
VShellback
p19
sasS'references'
p20
(dp21
sS'artist_id'
p22
I13539
sg5
I502834
s.