(dp0
S'album'
p1
(dp2
S'name'
p3
S'Hozier'
p4
sS'id'
p5
I113336
ssS'description_refs'
p6
(dp7
sS'artist'
p8
S'Hozier'
p9
sS'title'
p10
S"Arsonist's Lullabye"
p11
sS'references'
p12
(dp13
S'song_unannotated'
p14
(lp15
(dp16
g5
S'338674'
p17
sa(dp18
g5
S'387652'
p19
sa(dp20
g5
S'375341'
p21
sa(dp22
g5
S'375341'
p23
sassS'artist_id'
p24
I73910
sg5
I436363
s.