(lp0
I1
aI2
aI3
aI4
aI2057
aI329739
aI13
aI589827
aI20503
aI589828
aI47131
aI38
aI42
aI2092
aI45
aI46
aI61488
aI56
aI59
aI64
aI16450
aI67
aI69
aI72
aI2121
aI83
aI85
aI86
aI88
aI89
aI616538
aI92
aI241761
aI12388
aI544871
aI105
aI107
aI112
aI117
aI118
aI217208
aI123
aI346237
aI571520
aI12417
aI130
aI134
aI146
aI2197
aI211094
aI157
aI158
aI61600
aI24741
aI169
aI170
aI264368
aI10418
aI186
aI191
aI49344
aI198
aI13347
aI2260
aI2268
aI223
aI224
aI8417
aI166114
aI228
aI229
aI346342
aI28906
aI350445
aI2286
aI4337
aI33010
aI551156
aI24823
aI10489
aI47356
aI80125
aI257
aI649478
aI41226
aI267
aI14607
aI272
aI233747
aI278
aI20185
aI51248
aI8491
aI1075
aI308
aI2358
aI641335
aI641336
aI641337
aI641338
aI49470
aI643393
aI579906
aI2444
aI14666
aI162126
aI16720
aI338
aI35155
aI196955
aI26975
aI29024
aI141666
aI357
aI137577
aI645493
aI645494
aI645495
aI35193
aI37246
aI38976
aI55684
aI2438
aI396
aI14266
aI401
aI407955
aI405
aI543133
aI634949
aI2470
aI537002
aI51628
aI25005
aI43421
aI436
aI437
aI438
aI446
aI49606
aI455
aI458
aI459
aI141781
aI471
aI391657
aI492
aI7250
aI496
aI557559
aI506
aI324091
aI193020
aI23037
aI68097
aI12802
aI2571
aI2572
aI43538
aI535
aI2585
aI546
aI554
aI57899
aI33327
aI1119
aI606782
aI57927
aI586
aI647765
aI606
aI4709
aI21100
aI610928
aI154225
aI2675
aI92265
aI4736
aI643
aI41605
aI12939
aI662
aI328350
aI47777
aI8866
aI6598
aI172716
aI691
aI144054
aI695
aI12991
aI31426
aI19139
aI21188
aI72396
aI166608
aI27359
aI643842
aI643843
aI643844
aI643845
aI782
aI2831
aI8976
aI13074
aI23315
aI17195
aI639789
aI820
aI17207
aI835
aI25418
aI27468
aI27474
aI27479
aI27486
aI48956
aI27506
aI27511
aI557945
aI568186
aI13185
aI904
aI33260
aI162702
aI1177
aI199577
aI922
aI9120
aI936
aI2992
aI641969
aI953
aI27578
aI964
aI27589
aI7111
aI156618
aI974
aI7122
aI27603
aI27604
aI25561
aI195546
aI988
aI27614
aI27616
aI27618
aI29680
aI1010
aI27638
aI27639
aI7161
aI1020
aI27646
aI50175
aI27648
aI27649
aI27653
aI179206
aI451592
aI15369
aI1039
aI15379
aI451607
aI1052
aI646173
aI197662
aI451615
aI451616
aI451617
aI27683
aI27689
aI44080
aI1073
aI214067
aI27701
aI1078
aI27707
aI371775
aI574528
aI27713
aI523
aI7236
aI7237
aI539718
aI36862
aI648273
aI648274
aI29780
aI500824
aI11353
aI27738
aI474207
aI1124
aI1129
aI644204
aI37997
aI27765
aI285818
aI49343
aI5248
aI54401
aI11395
aI646277
aI646278
aI23691
aI27794
aI222357
aI154774
aI17560
aI7321
aI27804
aI1181
aI144557
aI27822
aI19635
aI289976
aI27835
aI27836
aI1218
aI48326
aI218313
aI7031
aI49698
aI7393
aI1255
aI1256
aI589044
aI5367
aI13567
aI13568
aI27916
aI589075
aI148761
aI29978
aI1583
aI27938
aI1319
aI7472
aI634166
aI38206
aI451809
aI1355
aI2274
aI42318
aI27984
aI17746
aI648546
aI3431
aI1393
aI1421
aI1422
aI64930
aI634300
aI331198
aI3526
aI183757
aI36326
aI1513
aI30192
aI7672
aI58017
aI30206
aI124415
aI36352
aI11779
aI28169
aI210443
aI7698
aI1557
aI71193
aI44575
aI216609
aI34340
aI14598
aI30246
aI151087
aI517680
aI347701
aI1601
aI388683
aI65109
aI36440
aI271
aI177756
aI328634
aI1630
aI1631
aI1632
aI104044
aI290415
aI372361
aI22161
aI338191
aI12229
aI28615
aI32429
aI1713
aI388799
aI944
aI181966
aI50896
aI30425
aI69347
aI34533
aI9972
aI642813
aI642814
aI642815
aI14082
aI587534
aI587535
aI1819
aI546590
aI139040
aI182049
aI27612
aI67379
aI67380
aI79676
aI28480
aI310
aI149336
aI26460
aI65377
aI34659
aI28518
aI5996
aI22384
aI612212
aI26507
aI491405
aI24472
aI10144
aI455664
aI22437
aI57262
aI57263
aI288690
aI1972
aI38842
aI1985
aI99318
aI39585
aI28651
aI1362
aI2035
aI14325
aI626678
aI64581
a.