(dp0
S'album'
p1
(dp2
S'name'
p3
S'ATLiens'
p4
sS'id'
p5
I7363
ssS'description_refs'
p6
(dp7
sS'artist'
p8
S'Outkast'
p9
sS'title'
p10
S'ATLiens'
p11
sS'producers'
p12
(lp13
(dp14
g5
I28938
sg8
VOrganized Noize
p15
sasS'references'
p16
(dp17
g1
(lp18
(dp19
g3
VSouthernplayalisticadillacmuzik
p20
sg5
S'7373'
p21
sasS'song_unannotated'
p22
(lp23
(dp24
g5
S'36281'
p25
sa(dp26
g5
S'1270'
p27
sassS'artist_id'
p28
I105
sg5
I1277
s.