(dp0
S'album'
p1
(dp2
S'name'
p3
S'Sound: A Novel'
p4
sS'id'
p5
I107753
ssS'description_refs'
p6
(dp7
sS'artist'
p8
S'Tom Wolf'
p9
sS'title'
p10
S"Author's Cut of Chapter 3 of SOUND"
p11
sS'producers'
p12
(lp13
(dp14
g5
I43710
sg8
VBeatnam Vets
p15
sasS'references'
p16
(dp17
sS'artist_id'
p18
I42132
sg5
I130616
s.