(dp0
S'album'
p1
(dp2
S'name'
p3
S'Fan Of A Fan: The Album'
p4
sS'id'
p5
I118585
ssS'description_refs'
p6
(dp7
sS'artist'
p8
S'Chris Brown & Tyga'
p9
sS'title'
p10
S'Ayo'
p11
sS'featured_artists'
p12
(lp13
(dp14
g5
I438
sg8
VChris Brown
p15
sa(dp16
g5
I554
sg8
VTyga
p17
sasS'producers'
p18
(lp19
(dp20
g5
I29680
sg8
VNic Nac
p21
sasS'references'
p22
(dp23
S'song_unannotated'
p24
(lp25
(dp26
g5
S'706347'
p27
sa(dp28
g5
S'55329'
p29
sasS'other'
p30
(lp31
(dp32
g5
S'61794'
p33
sg10
VThinking Out Loud
p34
sasg8
(lp35
(dp36
g3
VPuff Daddy
p37
sg5
S'82'
p38
sassS'artist_id'
p39
I322517
sg5
I640182
s.