(dp0
S'album'
p1
(dp2
S'name'
p3
S'...Baby One More Time'
p4
sS'id'
p5
I40205
ssS'description_refs'
p6
(dp7
sS'artist'
p8
S'Britney Spears'
p9
sS'title'
p10
S'...Baby One More Time'
p11
sS'producers'
p12
(lp13
(dp14
g5
I27713
sg8
VRami
p15
sa(dp16
g5
I27835
sg8
VMax Martin
p17
sasS'references'
p18
(dp19
S'song_unannotated'
p20
(lp21
(dp22
g5
S'117543'
p23
sa(dp24
g5
S'193619'
p25
sa(dp26
g5
S'193468'
p27
sassS'artist_id'
p28
I1052
sg5
I78169
s.