(dp0
S'album'
p1
(dp2
S'name'
p3
S'#AndSeeThatsTheThing'
p4
sS'id'
p5
I128023
ssS'description_refs'
p6
(dp7
sS'artist'
p8
S'DeJ Loaf'
p9
sS'title'
p10
S'Back Up'
p11
sS'featured_artists'
p12
(lp13
(dp14
g5
I492
sg8
VBig Sean
p15
sasS'producers'
p16
(lp17
(dp18
g5
I338191
sg8
VIRock
p19
sasS'references'
p20
(dp21
S'song_unannotated'
p22
(lp23
(dp24
g5
S'576535'
p25
sa(dp26
g5
S'70324'
p27
sa(dp28
g5
S'517621'
p29
sa(dp30
g5
S'113898'
p31
sasS'other'
p32
(lp33
(dp34
g5
S'80573'
p35
sg10
VIm Out Here Remix
p36
sasg8
(lp37
(dp38
g3
VDusty McFly
p39
sg5
S'16720'
p40
sa(dp41
g3
VNaya Rivera
p42
sg5
S'99318'
p43
sassS'artist_id'
p44
I222357
sg5
I2163216
s.