(dp0
S'album'
p1
(dp2
S'name'
p3
S'Beef'
p4
sS'id'
p5
I143141
ssS'description_refs'
p6
(dp7
S'artist'
p8
(lp9
(dp10
g3
VMeek Mill
p11
sg5
S'1319'
p12
sassg8
S'Drake'
p13
sS'title'
p14
S'Back to Back'
p15
sS'producers'
p16
(lp17
(dp18
g5
I328350
sg8
VDaxz
p19
sasS'references'
p20
(dp21
g1
(lp22
(dp23
g3
VThe Pinkprint
p24
sg5
S'97218'
p25
sa(dp26
g3
VSo Far Gone
p27
sg5
S'2627'
p28
sasS'song_unannotated'
p29
(lp30
(dp31
g5
S'703756'
p32
sasS'other'
p33
(lp34
(dp35
g5
S'601816'
p36
sg14
VBuy A Heart
p37
sa(dp38
g5
S'486'
p39
sg14
VSuccessful
p40
sa(dp41
g5
S'2263716'
p42
sg14
VCharged Up
p43
sa(dp44
g5
S'2263716'
p45
sg14
VCharged Up
p46
sasg8
(lp47
(dp48
g3
VRae Sremmurd
p49
sg5
S'177756'
p50
sa(dp51
g3
VTinashe
p52
sg5
S'25561'
p53
sa(dp54
g3
VDeJ Loaf
p55
sg5
S'222357'
p56
sa(dp57
g3
VPusha T
p58
sg5
S'643'
p59
sa(dp60
g3
VCommon
p61
sg5
S'223'
p62
sa(dp63
g3
VNicki Minaj
p64
sg5
S'92'
p65
sassS'artist_id'
p66
I130
sg5
I2266961
s.