(dp0
S'album'
p1
(dp2
S'name'
p3
S'KHALIFA'
p4
sS'id'
p5
I140822
ssS'description_refs'
p6
(dp7
S'song_unannotated'
p8
(lp9
(dp10
g5
S'2339761'
p11
sasS'artist'
p12
(lp13
(dp14
g3
VG-Eazy
p15
sg5
S'11395'
p16
sa(dp17
g3
VJuicy J
p18
sg5
S'1073'
p19
sa(dp20
g3
VTM88
p21
sg5
S'27486'
p22
sa(dp23
g3
VLex Luger
p24
sg5
S'2268'
p25
sassg12
S'Wiz Khalifa'
p26
sS'title'
p27
S'Bake Sale'
p28
sS'featured_artists'
p29
(lp30
(dp31
g5
I20185
sg12
VTravis Scott
p32
sasS'producers'
p33
(lp34
(dp35
g5
I33260
sg12
VCrazy Mike
p36
sa(dp37
g5
I27511
sg12
VDJ Spinz
p38
sa(dp39
g5
I2268
sg12
VLex Luger
p40
sa(dp41
g5
I27486
sg12
VTM88
p42
sa(dp43
g5
I1073
sg12
VJuicy J
p44
sasS'references'
p45
(dp46
sS'artist_id'
p47
I310
sg5
I2304247
s.