(dp0
S'description_refs'
p1
(dp2
sS'title'
p3
S'Ball Like This'
p4
sS'artist'
p5
S'LA Leakers'
p6
sS'featured_artists'
p7
(lp8
(dp9
S'id'
p10
I2197
sg5
VFuture
p11
sa(dp12
g10
I1631
sg5
VKid Ink
p13
sa(dp14
g10
I310
sg5
VWiz Khalifa
p15
sasS'producers'
p16
(lp17
(dp18
g10
I589828
sg5
VJaycen Joshua
p19
sa(dp20
g10
I24741
sg5
VDJ Khalil
p21
sa(dp22
g10
I589827
sg5
VMike N Keys
p23
sa(dp24
g10
I48956
sg5
VSalva
p25
sasS'references'
p26
(dp27
S'song'
p28
(lp29
(dp30
S'title'
p31
VDirty Sprite
p32
sS'id'
p33
S'67051'
p34
sS'artist'
p35
VFuture
p36
sa(dp37
g31
VPurple Coming In
p38
sg33
S'728784'
p39
sg35
VFuture
p40
sa(dp41
g31
VCodeine Crazy
p42
sg33
S'559442'
p43
sg35
VFuture
p44
sa(dp45
g31
VRich $ex
p46
sg33
S'2214983'
p47
sg35
VFuture
p48
sasg5
(lp49
(dp50
S'name'
p51
VFuture
p52
sg10
S'2197'
p53
sa(dp54
g51
VCiara
p55
sg10
S'1630'
p56
sassS'artist_id'
p57
I34659
sg10
I2347598
s.