(dp0
S'album'
p1
(dp2
S'name'
p3
S'No Label'
p4
sS'id'
p5
I83596
ssS'description_refs'
p6
(dp7
S'song_unannotated'
p8
(lp9
(dp10
g5
S'176872'
p11
sassS'artist'
p12
S'Migos'
p13
sS'title'
p14
S'Bando'
p15
sS'references'
p16
(dp17
g8
(lp18
(dp19
g5
S'46303'
p20
sasg12
(lp21
(dp22
g3
VTrina
p23
sg5
S'117'
p24
sassS'artist_id'
p25
I44080
sg5
I168255
s.