(dp0
S'album'
p1
(dp2
S'name'
p3
S'Zoo Style'
p4
sS'id'
p5
I120212
ssS'description_refs'
p6
(dp7
sS'artist'
p8
S'Remy Boyz'
p9
sS'title'
p10
S'Beautiful'
p11
sS'featured_artists'
p12
(lp13
(dp14
g5
I331198
sg8
VNittDaGritt
p15
sasS'references'
p16
(dp17
sS'artist_id'
p18
I211094
sg5
I710897
s.