(dp0
S'album'
p1
(dp2
S'name'
p3
S'No Way Out'
p4
sS'id'
p5
I7781
ssS'description_refs'
p6
(dp7
sS'artist'
p8
S'Puff Daddy'
p9
sS'title'
p10
S'Been Around the World'
p11
sS'featured_artists'
p12
(lp13
(dp14
g5
I249
sg8
VMase
p15
sa(dp16
g5
I22
sg8
VThe Notorious B.I.G.
p17
sasS'producers'
p18
(lp19
(dp20
g5
I6708
sg8
VThe Mad Rapper
p21
sa(dp22
g5
I28305
sg8
VAmen-Ra
p23
sasS'references'
p24
(dp25
S'song_unannotated'
p26
(lp27
(dp28
g5
S'1517'
p29
sa(dp30
g5
S'1360'
p31
sassS'artist_id'
p32
I82
sg5
I38118
s.