(dp0
S'album'
p1
(dp2
S'name'
p3
S'In Your Honor'
p4
sS'id'
p5
I42757
ssS'description_refs'
p6
(dp7
sS'artist'
p8
S'Foo Fighters'
p9
sS'title'
p10
S'Best Of You'
p11
sS'producers'
p12
(lp13
(dp14
g5
I29116
sg8
VNick Raskulinecz
p15
sasS'references'
p16
(dp17
sS'artist_id'
p18
I17237
sg5
I102576
s.