(dp0
S'album'
p1
(dp2
S'name'
p3
S'What a Time to Be Alive '
p4
sS'id'
p5
I131405
ssS'description_refs'
p6
(dp7
sS'artist'
p8
S'Drake & Future'
p9
sS'title'
p10
S'Big Rings'
p11
sS'featured_artists'
p12
(lp13
(dp14
g5
I2197
sg8
VFuture
p15
sa(dp16
g5
I130
sg8
VDrake
p17
sasS'producers'
p18
(lp19
(dp20
g5
I33010
sg8
VMetro Boomin
p21
sasS'references'
p22
(dp23
S'song_unannotated'
p24
(lp25
(dp26
g5
S'1780118'
p27
sa(dp28
g5
S'672'
p29
sa(dp30
g5
S'675638'
p31
sasS'song'
p32
(lp33
(dp34
g8
VDrake
p35
sg5
S'703742'
p36
sg10
VNo Tellin'
p37
sasg8
(lp38
(dp39
g3
VPimp C
p40
sg5
S'2444'
p41
sa(dp42
g3
VDJ Screw
p43
sg5
S'5367'
p44
sa(dp45
g3
VA$AP Yams
p46
sg5
S'69306'
p47
sassS'artist_id'
p48
I568186
sg5
I2311363
s.