(dp0
S'album'
p1
(dp2
S'name'
p3
S"#1's"
p4
sS'id'
p5
I15673
ssS'description_refs'
p6
(dp7
sS'artist'
p8
S"Destiny's Child"
p9
sS'title'
p10
S'Bills, Bills, Bills'
p11
sS'producers'
p12
(lp13
(dp14
g5
I137924
sg8
VKevin "She'kspere" Briggs
p15
sasS'references'
p16
(dp17
g8
(lp18
(dp19
g3
VTLC
p20
sg5
S'964'
p21
sasS'song'
p22
(lp23
(dp24
g8
VTLC
p25
sg5
S'2365'
p26
sg10
VNo Scrubs
p27
sassS'artist_id'
p28
I2831
sg5
I428668
s.