(dp0
S'album'
p1
(dp2
S'name'
p3
S'Jeremih'
p4
sS'id'
p5
I28467
ssS'description_refs'
p6
(dp7
sS'artist'
p8
S'Jeremih'
p9
sS'title'
p10
S'Birthday Sex'
p11
sS'producers'
p12
(lp13
(dp14
g5
I38438
sg8
VMick Schultz
p15
sasS'references'
p16
(dp17
sS'artist_id'
p18
I278
sg5
I2443
s.