(dp0
S'album'
p1
(dp2
S'name'
p3
S'ANTi'
p4
sS'id'
p5
I132689
ssS'description_refs'
p6
(dp7
sS'artist'
p8
S'Rihanna'
p9
sS'title'
p10
S'Bitch Better Have My Money'
p11
sS'producers'
p12
(lp13
(dp14
g5
I50896
sg8
VWondaGurl
p15
sa(dp16
g5
I20185
sg8
VTravis Scott
p17
sa(dp18
g5
I72
sg8
VKanye West
p19
sa(dp20
g5
I45238
sg8
VDeputy
p21
sasS'writers'
p22
(lp23
(dp24
g5
I72
sg8
VKanye West
p25
sa(dp26
g5
I20185
sg8
VTravis Scott
p27
sa(dp28
g5
I513345
sg8
VJamille Pierre
p29
sa(dp30
g5
I346741
sg8
VBibi Bourelly
p31
sasS'references'
p32
(dp33
S'song_unannotated'
p34
(lp35
(dp36
g5
S'2588'
p37
sa(dp38
g5
S'56642'
p39
sa(dp40
g5
S'97160'
p41
sasS'other'
p42
(lp43
(dp44
g5
S'4321'
p45
sg10
VCheers (I Drink To That)
p46
sasg8
(lp47
(dp48
g3
VDeputy
p49
sg5
S'45238'
p50
sa(dp51
g3
VJay Z
p52
sg5
S'2'
p53
sa(dp54
g3
VDeputy
p55
sg5
S'45238'
p56
sassS'artist_id'
p57
I89
sg5
I731783
s.