(dp0
S'description_refs'
p1
(dp2
sS'artist'
p3
S'The-Dream'
p4
sS'title'
p5
S'Black'
p6
sS'references'
p7
(dp8
g3
(lp9
(dp10
S'name'
p11
VMarvin Gaye
p12
sS'id'
p13
S'944'
p14
sassS'artist_id'
p15
I1181
sg13
I417235
s.