(dp0
S'description_refs'
p1
(dp2
sS'artist'
p3
S'Tritonal'
p4
sS'title'
p5
S'Blackout'
p6
sS'featured_artists'
p7
(lp8
(dp9
S'id'
p10
I378099
sg3
VSteph Jones
p11
sasS'references'
p12
(dp13
sS'artist_id'
p14
I227625
sg10
I2414561
s.