(dp0
S'album'
p1
(dp2
S'name'
p3
S'Dangerous'
p4
sS'id'
p5
I6296
ssS'description_refs'
p6
(dp7
sS'artist'
p8
S'Michael Jackson'
p9
sS'title'
p10
S'Black or White'
p11
sS'featured_artists'
p12
(lp13
(dp14
g5
I30796
sg8
VL.T.B.
p15
sasS'producers'
p16
(lp17
(dp18
g5
I30795
sg8
VBill Bottrell
p19
sasS'references'
p20
(dp21
g1
(lp22
(dp23
g3
VDangerous
p24
sg5
S'6296'
p25
sassS'artist_id'
p26
I835
sg5
I101077
s.