(dp0
S'album'
p1
(dp2
S'name'
p3
S'1989'
p4
sS'id'
p5
I110728
ssS'description_refs'
p6
(dp7
sS'artist'
p8
S'Taylor Swift'
p9
sS'title'
p10
S'Blank Space'
p11
sS'producers'
p12
(lp13
(dp14
g5
I27836
sg8
VShellback
p15
sa(dp16
g5
I27835
sg8
VMax Martin
p17
sasS'writers'
p18
(lp19
(dp20
g5
I27836
sg8
VShellback
p21
sa(dp22
g5
I27835
sg8
VMax Martin
p23
sasS'references'
p24
(dp25
S'song_unannotated'
p26
(lp27
(dp28
g5
S'114153'
p29
sassS'artist_id'
p30
I1177
sg5
I542389
s.