(dp0
S'description_refs'
p1
(dp2
sS'artist'
p3
S'Dreezy'
p4
sS'title'
p5
S'Body'
p6
sS'featured_artists'
p7
(lp8
(dp9
S'id'
p10
I278
sg3
VJeremih
p11
sasS'references'
p12
(dp13
sS'artist_id'
p14
I41226
sg10
I2403555
s.