(dp0
S'album'
p1
(dp2
S'name'
p3
S'PARTYNEXTDOOR TWO'
p4
sS'id'
p5
I108179
ssS'description_refs'
p6
(dp7
sS'artist'
p8
S'PARTYNEXTDOOR'
p9
sS'title'
p10
S'Bout It'
p11
sS'references'
p12
(dp13
sS'artist_id'
p14
I47131
sg5
I478469
s.