(dp0
S'album'
p1
(dp2
S'name'
p3
S"Soul '69"
p4
sS'id'
p5
I103660
ssS'description_refs'
p6
(dp7
sS'artist'
p8
S'Sam Cooke'
p9
sS'title'
p10
S'Bring It On Home To Me'
p11
sS'references'
p12
(dp13
sS'artist_id'
p14
I21689
sg5
I436662
s.