(dp0
S'description_refs'
p1
(dp2
sS'artist'
p3
S'Shy Carter'
p4
sS'title'
p5
S'Bring It Back'
p6
sS'featured_artists'
p7
(lp8
(dp9
S'id'
p10
I2332
sg3
VA.Leon Craft
p11
sasS'references'
p12
(dp13
sS'artist_id'
p14
I305829
sg10
I2329215
s.