(dp0
S'album'
p1
(dp2
S'name'
p3
S"Da' Nic"
p4
sS'id'
p5
I130714
ssS'description_refs'
p6
(dp7
sS'artist'
p8
S'T.I.'
p9
sS'title'
p10
S'Broadcast Live'
p11
sS'producers'
p12
(lp13
(dp14
g5
I43148
sg8
VScena
p15
sa(dp16
g5
I28973
sg8
VJazz feezy
p17
sasS'references'
p18
(dp19
sS'artist_id'
p20
I85
sg5
I2302528
s.