(dp0
S'album'
p1
(dp2
S'name'
p3
S'Vibes'
p4
sS'id'
p5
I112034
ssS'description_refs'
p6
(dp7
sS'artist'
p8
S'Theophilus London'
p9
sS'title'
p10
S"Can't Stop"
p11
sS'featured_artists'
p12
(lp13
(dp14
g5
I72
sg8
VKanye West
p15
sasS'producers'
p16
(lp17
(dp18
g5
I56091
sg8
VBrodinski
p19
sa(dp20
g5
I264374
sg8
VClub Cheval
p21
sasS'references'
p22
(dp23
sS'artist_id'
p24
I11505
sg5
I515519
s.