(dp0
S'album'
p1
(dp2
S'name'
p3
S'Like A Drug'
p4
sS'id'
p5
I113902
ssS'description_refs'
p6
(dp7
sS'artist'
p8
S'Honey Cocaine'
p9
sS'title'
p10
S"Can't Sit With Us"
p11
sS'references'
p12
(dp13
sS'artist_id'
p14
I13744
sg5
I556538
s.