(dp0
S'album'
p1
(dp2
S'name'
p3
S'Beauty Behind the Madness'
p4
sS'id'
p5
I127525
ssS'description_refs'
p6
(dp7
g1
(lp8
(dp9
g3
VHouse of Balloons
p10
sg5
S'11144'
p11
sa(dp12
g3
VBeauty Behind the Madness
p13
sg5
S'127525'
p14
sasS'song_unannotated'
p15
(lp16
(dp17
g5
S'729457'
p18
sa(dp19
g5
S'2273462'
p20
sa(dp21
g5
S'1913178'
p22
sa(dp23
g5
S'501510'
p24
sa(dp25
g5
S'639914'
p26
sasS'artist'
p27
(lp28
(dp29
g3
VMichael Jackson
p30
sg5
S'835'
p31
sa(dp32
g3
VMax Martin
p33
sg5
S'27835'
p34
sassg27
S'The Weeknd'
p35
sS'title'
p36
S"Can't Feel My Face"
p37
sS'producers'
p38
(lp39
(dp40
g5
I27835
sg27
VMax Martin
p41
sa(dp42
g5
I151087
sg27
VAli Payami
p43
sa(dp44
g5
I346342
sg27
VPeter Svensson
p45
sa(dp46
g5
I179206
sg27
VSavan Kotecha
p47
sasS'writers'
p48
(lp49
(dp50
g5
I151087
sg27
VAli Payami
p51
sa(dp52
g5
I346342
sg27
VPeter Svensson
p53
sa(dp54
g5
I179206
sg27
VSavan Kotecha
p55
sa(dp56
g5
I27835
sg27
VMax Martin
p57
sasS'references'
p58
(dp59
g15
(lp60
(dp61
g5
S'78169'
p62
sa(dp63
g5
S'542389'
p64
sa(dp65
g5
S'727466'
p66
sa(dp67
g5
S'542390'
p68
sa(dp69
g5
S'58349'
p70
sa(dp71
g5
S'118064'
p72
sa(dp73
g5
S'75115'
p74
sasS'other'
p75
(lp76
(dp77
g5
S'217981'
p78
sg36
VForever Young
p79
sasg27
(lp80
(dp81
g3
VIllangelo
p82
sg5
S'28480'
p83
sa(dp84
g3
VMano
p85
sg5
S'12802'
p86
sa(dp87
g3
VMichael Jackson
p88
sg5
S'835'
p89
sa(dp90
g3
VAlphaville
p91
sg5
S'71193'
p92
sassS'artist_id'
p93
I2358
sg5
I729458
s.