(dp0
S'description_refs'
p1
(dp2
sS'artist'
p3
S'Sean Paul'
p4
sS'title'
p5
S'Can You Do the Work'
p6
sS'featured_artists'
p7
(lp8
(dp9
S'id'
p10
I38385
sg3
VCe'Cile
p11
sasS'references'
p12
(dp13
sS'artist_id'
p14
I740
sg10
I1415961
s.