(dp0
S'album'
p1
(dp2
S'name'
p3
S'The Massacre'
p4
sS'id'
p5
I147
ssS'description_refs'
p6
(dp7
sS'artist'
p8
S'50 Cent'
p9
sS'title'
p10
S'Candy Shop'
p11
sS'featured_artists'
p12
(lp13
(dp14
g5
I1325
sg8
VOlivia
p15
sasS'producers'
p16
(lp17
(dp18
g5
I10233
sg8
VScott Storch
p19
sasS'references'
p20
(dp21
S'song_unannotated'
p22
(lp23
(dp24
g5
S'19749'
p25
sa(dp26
g5
S'45794'
p27
sassS'artist_id'
p28
I108
sg5
I2892
s.