(dp0
S'album'
p1
(dp2
S'name'
p3
S'Retrospective'
p4
sS'id'
p5
I122978
ssS'description_refs'
p6
(dp7
sS'artist'
p8
S'Natalie Merchant'
p9
sS'title'
p10
S'Carnival'
p11
sS'references'
p12
(dp13
sS'artist_id'
p14
I36234
sg5
I746593
s.