(dp0
S'album'
p1
(dp2
S'name'
p3
S'Timbaland Presents Shock Value II'
p4
sS'id'
p5
I5392
ssS'description_refs'
p6
(dp7
sS'artist'
p8
S'Timbaland'
p9
sS'title'
p10
S'Carry Out'
p11
sS'featured_artists'
p12
(lp13
(dp14
g5
I334
sg8
VJustin Timberlake
p15
sasS'producers'
p16
(lp17
(dp18
g5
I50471
sg8
VJerome Harmon
p19
sasS'references'
p20
(dp21
sS'artist_id'
p22
I112
sg5
I30258
s.