(dp0
S'description_refs'
p1
(dp2
S'song_unannotated'
p3
(lp4
(dp5
S'id'
p6
S'76103'
p7
sa(dp8
g6
S'73198'
p9
sa(dp10
g6
S'68615'
p11
sa(dp12
g6
S'73850'
p13
sassS'artist'
p14
S'Ca$h Out'
p15
sS'title'
p16
S'Cashin Out'
p17
sS'references'
p18
(dp19
sS'artist_id'
p20
I17560
sg6
I66225
s.