(dp0
S'description_refs'
p1
(dp2
sS'artist'
p3
S'Akon'
p4
sS'title'
p5
S'Cashin Out'
p6
sS'featured_artists'
p7
(lp8
(dp9
S'id'
p10
I17560
sg3
VCa$h Out
p11
sasS'references'
p12
(dp13
sS'artist_id'
p14
I157
sg10
I73850
s.