(dp0
S'album'
p1
(dp2
S'name'
p3
S'Pink Friday: Roman Reloaded'
p4
sS'id'
p5
I13529
ssS'description_refs'
p6
(dp7
sS'artist'
p8
S'Nicki Minaj'
p9
sS'title'
p10
S'Champion'
p11
sS'featured_artists'
p12
(lp13
(dp14
g5
I67
sg8
VJeezy
p15
sa(dp16
g5
I130
sg8
VDrake
p17
sa(dp18
g5
I56
sg8
VNas
p19
sasS'producers'
p20
(lp21
(dp22
g5
I27646
sg8
VNikhil "Kromatik" Seetharam
p23
sa(dp24
g5
I27479
sg8
VT-Minus
p25
sasS'references'
p26
(dp27
sS'artist_id'
p28
I92
sg5
I69579
s.