(dp0
S'album'
p1
(dp2
S'name'
p3
S'1000 Forms of Fear'
p4
sS'id'
p5
I104614
ssS'description_refs'
p6
(dp7
S'song_unannotated'
p8
(lp9
(dp10
g5
S'89794'
p11
sa(dp12
g5
S'239168'
p13
sasS'artist'
p14
(lp15
(dp16
g3
VBritney Spears
p17
sg5
S'1052'
p18
sassg14
S'Sia'
p19
sS'title'
p20
S'Chandelier'
p21
sS'featured_artists'
p22
(lp23
(dp24
g5
I272242
sg14
VRyan Heffington
p25
sasS'producers'
p26
(lp27
(dp28
g5
I55444
sg14
VGreg Kurstin
p29
sa(dp30
g5
I154199
sg14
VJesse Shatkin
p31
sasS'references'
p32
(dp33
g14
(lp34
(dp35
g3
VGreg Kurstin
p36
sg5
S'55444'
p37
sassS'artist_id'
p38
I16775
sg5
I378195
s.