(dp0
S'description_refs'
p1
(dp2
sS'artist'
p3
S'Sia'
p4
sS'title'
p5
S'Cheap Thrills (Remix)'
p6
sS'featured_artists'
p7
(lp8
(dp9
S'id'
p10
I740
sg3
VSean Paul
p11
sasS'references'
p12
(dp13
sS'artist_id'
p14
I16775
sg10
I2421373
s.