(dp0
S'album'
p1
(dp2
S'name'
p3
S'Every Open Eye'
p4
sS'id'
p5
I126620
ssS'description_refs'
p6
(dp7
g1
(lp8
(dp9
g3
VEvery Open Eye
p10
sg5
S'126620'
p11
sasS'artist'
p12
(lp13
(dp14
g3
VCHVRCHES
p15
sg5
S'40863'
p16
sassg12
S'CHVRCHES'
p17
sS'title'
p18
S'Clearest Blue'
p19
sS'references'
p20
(dp21
sS'artist_id'
p22
I40863
sg5
I2214586
s.