(dp0
S'album'
p1
(dp2
S'name'
p3
S'Gorillaz'
p4
sS'id'
p5
I3443
ssS'description_refs'
p6
(dp7
S'song_unannotated'
p8
(lp9
(dp10
g5
S'6106'
p11
sa(dp12
g5
S'21579'
p13
sassS'artist'
p14
S'Gorillaz'
p15
sS'title'
p16
S'Clint Eastwood'
p17
sS'featured_artists'
p18
(lp19
(dp20
g5
I1012
sg14
VDel the Funky Homosapien
p21
sasS'producers'
p22
(lp23
(dp24
g5
I60254
sg14
VJason Cox
p25
sa(dp26
g5
I60253
sg14
VTom Girling
p27
sa(dp28
g5
I16204
sg14
VDan the Automator
p29
sasS'references'
p30
(dp31
sS'artist_id'
p32
I860
sg5
I1698
s.