(dp0
S'description_refs'
p1
(dp2
S'song_unannotated'
p3
(lp4
(dp5
S'id'
p6
S'437376'
p7
sasS'artist'
p8
(lp9
(dp10
S'name'
p11
VBusta Rhymes
p12
sg6
S'338'
p13
sassg8
S'O.T. Genasis'
p14
sS'title'
p15
S'CoCo'
p16
sS'producers'
p17
(lp18
(dp19
g6
I172716
sg8
VJuice808
p20
sasS'references'
p21
(dp22
g8
(lp23
(dp24
g11
VBusta Rhymes
p25
sg6
S'338'
p26
sassS'artist_id'
p27
I154225
sg6
I539654
s.