(dp0
S'album'
p1
(dp2
S'name'
p3
S'Monster'
p4
sS'id'
p5
I113561
ssS'description_refs'
p6
(dp7
sS'artist'
p8
S'Future'
p9
sS'title'
p10
S'Codeine Crazy'
p11
sS'producers'
p12
(lp13
(dp14
g5
I27486
sg8
VTM88
p15
sasS'references'
p16
(dp17
S'song_unannotated'
p18
(lp19
(dp20
g5
S'558143'
p21
sasS'other'
p22
(lp23
(dp24
g5
S'85'
p25
sg10
VMake It Rain (Remix)
p26
sasg8
(lp27
(dp28
g3
VFuture
p29
sg5
S'2197'
p30
sa(dp31
g3
VR. Kelly
p32
sg5
S'535'
p33
sassS'artist_id'
p34
I2197
sg5
I559442
s.