(dp0
S'description_refs'
p1
(dp2
S'song_unannotated'
p3
(lp4
(dp5
S'id'
p6
S'2322014'
p7
sa(dp8
g6
S'2322020'
p9
sasS'song'
p10
(lp11
(dp12
S'artist'
p13
VPARTYNEXTDOOR
p14
sg6
S'2322001'
p15
sS'title'
p16
VOVO Freestyle
p17
sa(dp18
g13
VPARTYNEXTDOOR
p19
sg6
S'2322003'
p20
sg16
VSome Of Your Love
p21
sa(dp22
g13
VPARTYNEXTDOOR
p23
sg6
S'2322004'
p24
sg16
VMake It Rain
p25
sa(dp26
g13
VPARTYNEXTDOOR
p27
sg6
S'2322011'
p28
sg16
VWait For You
p29
sa(dp30
g13
VPARTYNEXTDOOR
p31
sg6
S'2322009'
p32
sg16
VAll I Wanna Know
p33
sasg13
(lp34
(dp35
S'name'
p36
VTy Dolla $ign
p37
sg6
S'25005'
p38
sa(dp39
g36
VRich The Kid
p40
sg6
S'65109'
p41
sassg13
S'PARTYNEXTDOOR'
p42
sg16
S"Codeine Bumpin'"
p43
sS'references'
p44
(dp45
sS'artist_id'
p46
I47131
sg6
I2322010
s.