(dp0
S'album'
p1
(dp2
S'name'
p3
S'Black Market'
p4
sS'id'
p5
I132593
ssS'description_refs'
p6
(dp7
g1
(lp8
(dp9
g3
VBlack Market
p10
sg5
S'132593'
p11
sassS'artist'
p12
S'Rick Ross'
p13
sS'title'
p14
S'Color Money'
p15
sS'producers'
p16
(lp17
(dp18
g5
I27614
sg12
VD. Rich
p19
sasS'references'
p20
(dp21
g1
(lp22
(dp23
g3
VBlack Market
p24
sg5
S'132593'
p25
sa(dp26
g3
VMastermind
p27
sg5
S'27316'
p28
sasS'song_unannotated'
p29
(lp30
(dp31
g5
S'40221'
p32
sa(dp33
g5
S'50025'
p34
sa(dp35
g5
S'182976'
p36
sa(dp37
g5
S'365947'
p38
sa(dp39
g5
S'535442'
p40
sasg12
(lp41
(dp42
g3
VPlies
p43
sg5
S'272'
p44
sa(dp45
g3
VGunplay
p46
sg5
S'2286'
p47
sassS'artist_id'
p48
I88
sg5
I2381771
s.