(dp0
S'album'
p1
(dp2
S'name'
p3
S'Lunatic'
p4
sS'id'
p5
I90058
ssS'description_refs'
p6
(dp7
S'song_unannotated'
p8
(lp9
(dp10
g5
S'387906'
p11
sassS'artist'
p12
S'Kongos'
p13
sS'title'
p14
S'Come With Me Now'
p15
sS'references'
p16
(dp17
sS'artist_id'
p18
I158325
sg5
I390244
s.