(dp0
S'album'
p1
(dp2
S'name'
p3
S"If You're Reading This It's Too Late"
p4
sS'id'
p5
I119674
ssS'description_refs'
p6
(dp7
S'artist'
p8
(lp9
(dp10
g3
VWondaGurl
p11
sg5
S'50896'
p12
sa(dp13
g3
VTM88
p14
sg5
S'27486'
p15
sassg8
S'Drake'
p16
sS'title'
p17
S'Company'
p18
sS'featured_artists'
p19
(lp20
(dp21
g5
I20185
sg8
VTravis Scott
p22
sasS'producers'
p23
(lp24
(dp25
g5
I27486
sg8
VTM88
p26
sa(dp27
g5
I20185
sg8
VTravis Scott
p28
sa(dp29
g5
I50896
sg8
VWondaGurl
p30
sasS'references'
p31
(dp32
S'song_unannotated'
p33
(lp34
(dp35
g5
S'58634'
p36
sa(dp37
g5
S'583'
p38
sassS'artist_id'
p39
I130
sg5
I703732
s.