(dp0
S'description_refs'
p1
(dp2
sS'artist'
p3
S'Big Sean'
p4
sS'title'
p5
S'Control'
p6
sS'featured_artists'
p7
(lp8
(dp9
S'id'
p10
I1421
sg3
VKendrick Lamar
p11
sa(dp12
g10
I198
sg3
VJay Electronica
p13
sasS'producers'
p14
(lp15
(dp16
g10
I4709
sg3
VNo I.D.
p17
sasS'references'
p18
(dp19
S'song_unannotated'
p20
(lp21
(dp22
g10
S'1819258'
p23
sa(dp24
g10
S'3176'
p25
sa(dp26
g10
S'199'
p27
sa(dp28
g10
S'225'
p29
sa(dp30
g10
S'51798'
p31
sasg3
(lp32
(dp33
S'name'
p34
VNo I.D.
p35
sg10
S'4709'
p36
sassS'artist_id'
p37
I492
sg10
I203961
s.