(dp0
S'album'
p1
(dp2
S'name'
p3
S'Take Care'
p4
sS'id'
p5
I10787
ssS'description_refs'
p6
(dp7
S'song_unannotated'
p8
(lp9
(dp10
g5
S'201'
p11
sasS'artist'
p12
(lp13
(dp14
g3
VSnoop Dogg
p15
sg5
S'46'
p16
sassg12
S'Drake'
p17
sS'title'
p18
S'Crew Love'
p19
sS'featured_artists'
p20
(lp21
(dp22
g5
I2358
sg12
VThe Weeknd
p23
sasS'producers'
p24
(lp25
(dp26
g5
I28480
sg12
VIllangelo
p27
sa(dp28
g5
I27612
sg12
VNoah \u201c40\u201d Shebib
p29
sa(dp30
g5
I2358
sg12
VThe Weeknd
p31
sasS'writers'
p32
(lp33
(dp34
g5
I28480
sg12
VIllangelo
p35
sa(dp36
g5
I2358
sg12
VThe Weeknd
p37
sa(dp38
g5
I27612
sg12
VNoah \u201c40\u201d Shebib
p39
sa(dp40
g5
I451592
sg12
VAnthony Palman
p41
sasS'references'
p42
(dp43
g8
(lp44
(dp45
g5
S'50180'
p46
sassS'artist_id'
p47
I130
sg5
I58497
s.