(dp0
S'album'
p1
(dp2
S'name'
p3
S'Rich Nigga Timeline'
p4
sS'id'
p5
I113969
ssS'description_refs'
p6
(dp7
sS'artist'
p8
S'Migos'
p9
sS'title'
p10
S'Cross The Country'
p11
sS'references'
p12
(dp13
sS'artist_id'
p14
I44080
sg5
I569516
s.