(dp0
S'album'
p1
(dp2
S'name'
p3
S'Random Access Memories (French Version)'
p4
sS'id'
p5
I84559
ssS'description_refs'
p6
(dp7
sS'artist'
p8
S'RG France Translations'
p9
sS'title'
p10
S'Daft Punk ft. Paul Williams - Touch (French Version)'
p11
sS'references'
p12
(dp13
sS'artist_id'
p14
I140856
sg5
I379183
s.