(dp0
S'album'
p1
(dp2
S'name'
p3
S'Born Gangstaz'
p4
sS'id'
p5
I1098
ssS'description_refs'
p6
(dp7
sS'artist'
p8
S'Bo$$'
p9
sS'title'
p10
S'Deeper'
p11
sS'featured_artists'
p12
(lp13
(dp14
g5
I3969
sg8
VPapa Juggy
p15
sasS'references'
p16
(dp17
sS'artist_id'
p18
I3968
sg5
I11435
s.