(dp0
S'album'
p1
(dp2
S'name'
p3
S'What a Time to Be Alive '
p4
sS'id'
p5
I131405
ssS'description_refs'
p6
(dp7
sS'artist'
p8
S'Drake & Future'
p9
sS'title'
p10
S'Diamonds Dancing'
p11
sS'featured_artists'
p12
(lp13
(dp14
g5
I2197
sg8
VFuture
p15
sa(dp16
g5
I130
sg8
VDrake
p17
sasS'producers'
p18
(lp19
(dp20
g5
I28169
sg8
VFrank Dukes
p21
sa(dp22
g5
I55684
sg8
VAllen Ritter
p23
sa(dp24
g5
I33010
sg8
VMetro Boomin
p25
sasS'writers'
p26
(lp27
(dp28
g5
I571520
sg8
VMikey Rodrigues
p29
sa(dp30
g5
I33010
sg8
VMetro Boomin
p31
sa(dp32
g5
I55684
sg8
VAllen Ritter
p33
sa(dp34
g5
I130
sg8
VDrake
p35
sa(dp36
g5
I2197
sg8
VFuture
p37
sasS'references'
p38
(dp39
g1
(lp40
(dp41
g3
VWhat a Time to Be Alive 
p42
sg5
S'131405'
p43
sasS'song_unannotated'
p44
(lp45
(dp46
g5
S'57183'
p47
sa(dp48
g5
S'69579'
p49
sa(dp50
g5
S'555359'
p51
sa(dp52
g5
S'622818'
p53
sa(dp54
g5
S'517'
p55
sa(dp56
g5
S'2045'
p57
sa(dp58
g5
S'559003'
p59
sa(dp60
g5
S'2213109'
p61
sa(dp62
g5
S'2263723'
p63
sasS'other'
p64
(lp65
(dp66
g5
S'261'
p67
sg10
VBedRock
p68
sasg8
(lp69
(dp70
g3
VFuture
p71
sg5
S'2197'
p72
sa(dp73
g3
VFuture
p74
sg5
S'2197'
p75
sa(dp76
g3
VZaytoven
p77
sg5
S'27822'
p78
sa(dp79
g3
VMike WiLL Made It
p80
sg5
S'29978'
p81
sa(dp82
g3
VDrake
p83
sg5
S'130'
p84
sa(dp85
g3
VJay Z
p86
sg5
S'2'
p87
sa(dp88
g3
VFuture
p89
sg5
S'2197'
p90
sassS'artist_id'
p91
I568186
sg5
I2311366
s.