(dp0
S'album'
p1
(dp2
S'name'
p3
S'Streets on Lock 4'
p4
sS'id'
p5
I113425
ssS'description_refs'
p6
(dp7
sS'artist'
p8
S'Migos'
p9
sS'title'
p10
S'Dirk Nowitzki'
p11
sS'featured_artists'
p12
(lp13
(dp14
g5
I22437
sg8
VYoung Dolph
p15
sasS'producers'
p16
(lp17
(dp18
g5
I27822
sg8
VZaytoven
p19
sasS'references'
p20
(dp21
sS'artist_id'
p22
I44080
sg5
I2342995
s.