(dp0
S'album'
p1
(dp2
S'name'
p3
S'Dirty Sprite'
p4
sS'id'
p5
I12192
ssS'description_refs'
p6
(dp7
sS'artist'
p8
S'Future'
p9
sS'title'
p10
S'Dirty Sprite'
p11
sS'producers'
p12
(lp13
(dp14
g5
I29978
sg8
VMike WiLL Made It
p15
sasS'references'
p16
(dp17
g8
(lp18
(dp19
g3
VFuture
p20
sg5
S'2197'
p21
sa(dp22
g3
VFuture
p23
sg5
S'2197'
p24
sa(dp25
g3
VFuture
p26
sg5
S'2197'
p27
sa(dp28
g3
VPimp C
p29
sg5
S'2444'
p30
sa(dp31
g3
VDJ Screw
p32
sg5
S'5367'
p33
sa(dp34
g3
VBig Hawk
p35
sg5
S'7472'
p36
sa(dp37
g3
VFuture
p38
sg5
S'2197'
p39
sassS'artist_id'
p40
I2197
sg5
I67051
s.