(dp0
S'album'
p1
(dp2
S'name'
p3
S'Beauty and the Beast'
p4
sS'id'
p5
I112316
ssS'description_refs'
p6
(dp7
sS'artist'
p8
S'Rapsody'
p9
sS'title'
p10
S"Don't Need It"
p11
sS'featured_artists'
p12
(lp13
(dp14
g5
I344097
sg8
VMerna
p15
sasS'producers'
p16
(lp17
(dp18
g5
I32394
sg8
VYoung Guru
p19
sasS'references'
p20
(dp21
S'song_unannotated'
p22
(lp23
(dp24
g5
S'721286'
p25
sasg8
(lp26
(dp27
g3
VBirdman
p28
sg5
S'86'
p29
sa(dp30
g3
VDrake
p31
sg5
S'130'
p32
sa(dp33
g3
VKid Cudi
p34
sg5
S'68'
p35
sassS'artist_id'
p36
I14148
sg5
I743136
s.