(dp0
S'album'
p1
(dp2
S'name'
p3
S'Talking Heads: 77'
p4
sS'id'
p5
I17305
ssS'description_refs'
p6
(dp7
S'song_unannotated'
p8
(lp9
(dp10
g5
S'499101'
p11
sassS'artist'
p12
S'Talking Heads'
p13
sS'title'
p14
S"Don't Worry About the Government"
p15
sS'references'
p16
(dp17
g8
(lp18
(dp19
g5
S'691817'
p20
sa(dp21
g5
S'499101'
p22
sa(dp23
g5
S'75108'
p24
sa(dp25
g5
S'139773'
p26
sasS'other'
p27
(lp28
(dp29
g5
S'212756'
p30
sg14
VAnd She Was
p31
sassS'artist_id'
p32
I13347
sg5
I75115
s.