(dp0
S'album'
p1
(dp2
S'name'
p3
S'Konvicted'
p4
sS'id'
p5
I286
ssS'description_refs'
p6
(dp7
sS'artist'
p8
S'Akon'
p9
sS'title'
p10
S"Don't Matter"
p11
sS'references'
p12
(dp13
sS'artist_id'
p14
I157
sg5
I7722
s.