(dp0
S'album'
p1
(dp2
S'name'
p3
S'T R A P S O U L'
p4
sS'id'
p5
I129455
ssS'description_refs'
p6
(dp7
sS'artist'
p8
S'Bryson Tiller'
p9
sS'title'
p10
S"Don't"
p11
sS'producers'
p12
(lp13
(dp14
g5
I543133
sg8
VDopeBoi
p15
sasS'references'
p16
(dp17
S'song_unannotated'
p18
(lp19
(dp20
g5
S'17807'
p21
sa(dp22
g5
S'2149919'
p23
sasg8
(lp24
(dp25
g3
VDrake
p26
sg5
S'130'
p27
sa(dp28
g3
VLil Wayne
p29
sg5
S'4'
p30
sassS'artist_id'
p31
I264368
sg5
I579968
s.