(dp0
S'album'
p1
(dp2
S'name'
p3
S'The Marshall Mathers LP'
p4
sS'id'
p5
I2873
ssS'description_refs'
p6
(dp7
sS'artist'
p8
S'Eminem'
p9
sS'title'
p10
S'Drug Ballad'
p11
sS'featured_artists'
p12
(lp13
(dp14
g5
I356
sg8
VDina Rae
p15
sasS'producers'
p16
(lp17
(dp18
g5
I91562
sg8
VBass Brothers
p19
sasS'writers'
p20
(lp21
(dp22
g5
I91562
sg8
VBass Brothers
p23
sasS'references'
p24
(dp25
g1
(lp26
(dp27
g3
VEncore
p28
sg5
S'2867'
p29
sa(dp30
g3
VRelapse
p31
sg5
S'2878'
p32
sasS'song_unannotated'
p33
(lp34
(dp35
g5
S'617'
p36
sassS'artist_id'
p37
I45
sg5
I690
s.