(dp0
S'album'
p1
(dp2
S'name'
p3
S'DS2'
p4
sS'id'
p5
I127543
ssS'description_refs'
p6
(dp7
sS'artist'
p8
S'Future'
p9
sS'title'
p10
S'DS2 Cover Art + Tracklist'
p11
sS'references'
p12
(dp13
g8
(lp14
(dp15
g3
VFuture
p16
sg5
S'2197'
p17
sassS'artist_id'
p18
I2197
sg5
I2172126
s.