(dp0
S'album'
p1
(dp2
S'name'
p3
S'Country Grammar'
p4
sS'id'
p5
I7126
ssS'description_refs'
p6
(dp7
sS'artist'
p8
S'Nelly'
p9
sS'title'
p10
S'E.I.'
p11
sS'references'
p12
(dp13
sS'artist_id'
p14
I148
sg5
I35229
s.