(dp0
S'album'
p1
(dp2
S'name'
p3
S'Beauty Behind the Madness'
p4
sS'id'
p5
I127525
ssS'description_refs'
p6
(dp7
sS'artist'
p8
S'The Weeknd'
p9
sS'title'
p10
S'Earned It'
p11
sS'producers'
p12
(lp13
(dp14
g5
I574528
sg8
VDaHeala
p15
sa(dp16
g5
I290415
sg8
VStephan Moccio
p17
sasS'writers'
p18
(lp19
(dp20
g5
I574528
sg8
VDaHeala
p21
sa(dp22
g5
I290415
sg8
VStephan Moccio
p23
sa(dp24
g5
I1362
sg8
VBelly
p25
sasS'references'
p26
(dp27
g1
(lp28
(dp29
g3
VTrilogy 
p30
sg5
S'21737'
p31
sa(dp32
g3
VKiss Land 
p33
sg5
S'33704'
p34
sa(dp35
g3
VOriginal Motion Picture Soundtrack
p36
sg5
S'118063'
p37
sasS'song_unannotated'
p38
(lp39
(dp40
g5
S'700711'
p41
sa(dp42
g5
S'61972'
p43
sasS'song'
p44
(lp45
(dp46
g8
VThe Weeknd
p47
sg5
S'460183'
p48
sg10
VOften
p49
sassS'artist_id'
p50
I2358
sg5
I639914
s.