(dp0
S'album'
p1
(dp2
S'name'
p3
S'Dark Red'
p4
sS'id'
p5
I122832
ssS'description_refs'
p6
(dp7
sS'artist'
p8
S'Shlohmo'
p9
sS'title'
p10
S'Emerge From Smoke'
p11
sS'references'
p12
(dp13
sS'artist_id'
p14
I30260
sg5
I742999
s.