(dp0
S'album'
p1
(dp2
S'name'
p3
S'Cooleyhighharmony'
p4
sS'id'
p5
I36251
ssS'description_refs'
p6
(dp7
sS'artist'
p8
S'Boyz II Men'
p9
sS'title'
p10
S'End Of The Road'
p11
sS'producers'
p12
(lp13
(dp14
g5
I88892
sg8
VDaryl Simmons
p15
sa(dp16
g5
I70728
sg8
VL.A. Reid
p17
sa(dp18
g5
I1336
sg8
VBabyface
p19
sasS'writers'
p20
(lp21
(dp22
g5
I88892
sg8
VDaryl Simmons
p23
sa(dp24
g5
I70728
sg8
VL.A. Reid
p25
sa(dp26
g5
I1336
sg8
VBabyface
p27
sasS'references'
p28
(dp29
sS'artist_id'
p30
I440
sg5
I51652
s.