(dp0
S'album'
p1
(dp2
S'name'
p3
S"If You're Reading This It's Too Late"
p4
sS'id'
p5
I119674
ssS'description_refs'
p6
(dp7
sS'artist'
p8
S'Drake'
p9
sS'title'
p10
S'Energy'
p11
sS'producers'
p12
(lp13
(dp14
g5
I662
sg8
VBoi-1da
p15
sasS'writers'
p16
(lp17
(dp18
g5
I646164
sg8
VMarkus Kienzi
p19
sa(dp20
g5
I481830
sg8
VRichard dorfmeister
p21
sa(dp22
g5
I646163
sg8
VPhillip Thomas
p23
sa(dp24
g5
I24661
sg8
VOB O'Brien
p25
sa(dp26
g5
I662
sg8
VBoi-1da
p27
sasS'references'
p28
(dp29
sS'artist_id'
p30
I130
sg5
I703741
s.