(dp0
S'album'
p1
(dp2
S'name'
p3
S'EVOL'
p4
sS'id'
p5
I143267
ssS'description_refs'
p6
(dp7
g1
(lp8
(dp9
g3
VBeast Mode
p10
sg5
S'118111'
p11
sa(dp12
g3
VDS2
p13
sg5
S'127543'
p14
sa(dp15
g3
VWhat a Time to Be Alive 
p16
sg5
S'131405'
p17
sassS'artist'
p18
S'Future'
p19
sS'title'
p20
S'EVOL [Tracklist + Cover Art]'
p21
sS'references'
p22
(dp23
sS'artist_id'
p24
I2197
sg5
I2417474
s.