(dp0
S'album'
p1
(dp2
S'name'
p3
S'Thank Me Later'
p4
sS'id'
p5
I2630
ssS'description_refs'
p6
(dp7
sS'artist'
p8
S'Drake'
p9
sS'title'
p10
S'Fancy'
p11
sS'featured_artists'
p12
(lp13
(dp14
g5
I184
sg8
VSwizz Beatz
p15
sa(dp16
g5
I85
sg8
VT.I.
p17
sasS'producers'
p18
(lp19
(dp20
g5
I184
sg8
VSwizz Beatz
p21
sa(dp22
g5
I27612
sg8
VNoah \u201c40\u201d Shebib
p23
sasS'references'
p24
(dp25
S'song_unannotated'
p26
(lp27
(dp28
g5
S'1267'
p29
sasg8
(lp30
(dp31
g3
VKanye West
p32
sg5
S'72'
p33
sassS'artist_id'
p34
I130
sg5
I583
s.