(dp0
S'description_refs'
p1
(dp2
sS'artist'
p3
S'T.A.C.'
p4
sS'title'
p5
S'Feed Me Tapes'
p6
sS'producers'
p7
(lp8
(dp9
S'id'
p10
I537270
sg3
VA lot (Producer)
p11
sasS'references'
p12
(dp13
sS'artist_id'
p14
I14026
sg10
I246656
s.