(dp0
S'description_refs'
p1
(dp2
sS'artist'
p3
S'Deorro,Chris Brown'
p4
sS'title'
p5
S'Five More Hours - Deorro x Chris Brown'
p6
sS'references'
p7
(dp8
sS'artist_id'
p9
I521274
sS'id'
p10
I2176665
s.