(dp0
S'album'
p1
(dp2
S'name'
p3
S'Underground Luxury'
p4
sS'id'
p5
I35052
ssS'description_refs'
p6
(dp7
sS'artist'
p8
S'B.o.B'
p9
sS'title'
p10
S'FlyMuthaFucka'
p11
sS'references'
p12
(dp13
sS'artist_id'
p14
I853
sg5
I302157
s.