(dp0
S'album'
p1
(dp2
S'name'
p3
S'Dangerous Woman'
p4
sS'id'
p5
I125387
ssS'description_refs'
p6
(dp7
S'artist'
p8
(lp9
(dp10
g3
VAriana Grande
p11
sg5
S'26507'
p12
sassg8
S'Ariana Grande'
p13
sS'title'
p14
S'Focus'
p15
sS'producers'
p16
(lp17
(dp18
g5
I302825
sg8
VIlya Salmanzadeh
p19
sa(dp20
g5
I27835
sg8
VMax Martin
p21
sasS'writers'
p22
(lp23
(dp24
g5
I346342
sg8
VPeter Svensson
p25
sa(dp26
g5
I179206
sg8
VSavan Kotecha
p27
sa(dp28
g5
I155062
sg8
VIlya
p29
sasS'references'
p30
(dp31
S'song_unannotated'
p32
(lp33
(dp34
g5
S'405888'
p35
sa(dp36
g5
S'499725'
p37
sasg8
(lp38
(dp39
g3
VJamie Foxx
p40
sg5
S'73'
p41
sa(dp42
g3
VBig Sean
p43
sg5
S'492'
p44
sa(dp45
g3
VBig Sean
p46
sg5
S'492'
p47
sassS'artist_id'
p48
I26507
sg5
I2275721
s.