(dp0
S'album'
p1
(dp2
S'name'
p3
S'Bloo EP'
p4
sS'id'
p5
I130895
ssS'description_refs'
p6
(dp7
g1
(lp8
(dp9
g3
VBloo EP
p10
sg5
S'130895'
p11
sasS'artist'
p12
(lp13
(dp14
g3
VKacy Hill
p15
sg5
S'289457'
p16
sa(dp17
g3
VKanye West
p18
sg5
S'72'
p19
sassg12
S'Kacy Hill'
p20
sS'title'
p21
S'Foreign Fields'
p22
sS'references'
p23
(dp24
sS'artist_id'
p25
I289457
sg5
I2287448
s.