(dp0
S'album'
p1
(dp2
S'name'
p3
S'The Miseducation of Lauryn Hill'
p4
sS'id'
p5
I4774
ssS'description_refs'
p6
(dp7
sS'artist'
p8
S'Lauryn Hill'
p9
sS'title'
p10
S'Forgive Them Father'
p11
sS'featured_artists'
p12
(lp13
(dp14
g5
I7380
sg8
VShelly Thunder
p15
sasS'references'
p16
(dp17
S'song_unannotated'
p18
(lp19
(dp20
g5
S'722288'
p21
sa(dp22
g5
S'2403628'
p23
sassS'artist_id'
p24
I448
sg5
I27574
s.