(dp0
S'album'
p1
(dp2
S'name'
p3
S'Streets on Lock 3'
p4
sS'id'
p5
I92372
ssS'description_refs'
p6
(dp7
sS'artist'
p8
S'Migos'
p9
sS'title'
p10
S'Freestyle'
p11
sS'featured_artists'
p12
(lp13
(dp14
g5
I20503
sg8
VYoung Thug
p15
sasS'producers'
p16
(lp17
(dp18
g5
I34340
sg8
VDa Honorable C.N.O.T.E.
p19
sasS'references'
p20
(dp21
S'song_unannotated'
p22
(lp23
(dp24
g5
S'386121'
p25
sassS'artist_id'
p26
I44080
sg5
I386316
s.