(dp0
S'album'
p1
(dp2
S'name'
p3
S'Monster'
p4
sS'id'
p5
I113561
ssS'description_refs'
p6
(dp7
g1
(lp8
(dp9
g3
VMonster
p10
sg5
S'113561'
p11
sa(dp12
g3
VDS2
p13
sg5
S'127543'
p14
sasS'song_unannotated'
p15
(lp16
(dp17
g5
S'1914390'
p18
sa(dp19
g5
S'736003'
p20
sassS'artist'
p21
S'Future'
p22
sS'title'
p23
S'Fuck Up Some Commas'
p24
sS'producers'
p25
(lp26
(dp27
g5
I23315
sg21
VSouthside
p28
sa(dp29
g5
I27511
sg21
VDJ Spinz
p30
sasS'references'
p31
(dp32
S'other'
p33
(lp34
(dp35
g5
S'559003'
p36
sg23
VFuck Up Some Commas
p37
sasg21
(lp38
(dp39
g3
VCiara
p40
sg5
S'1630'
p41
sa(dp42
g3
VDJ Spinz
p43
sg5
S'27511'
p44
sassS'artist_id'
p45
I2197
sg5
I559003
s.