(dp0
S'album'
p1
(dp2
S'name'
p3
S'Magna Carta... Holy Grail'
p4
sS'id'
p5
I36559
ssS'description_refs'
p6
(dp7
g1
(lp8
(dp9
g3
VMastermind
p10
sg5
S'27316'
p11
sasS'song_unannotated'
p12
(lp13
(dp14
g5
S'365960'
p15
sassS'artist'
p16
S'Jay Z'
p17
sS'title'
p18
S'FuckWithMeYouKnowIGotIt'
p19
sS'featured_artists'
p20
(lp21
(dp22
g5
I88
sg16
VRick Ross
p23
sasS'producers'
p24
(lp25
(dp26
g5
I27616
sg16
VVinylz
p27
sa(dp28
g5
I662
sg16
VBoi-1da
p29
sa(dp30
g5
I112
sg16
VTimbaland
p31
sasS'writers'
p32
(lp33
(dp34
g5
I642815
sg16
VW. Roberts
p35
sa(dp36
g5
I642814
sg16
VA. Hernandez
p37
sa(dp38
g5
I642813
sg16
VM. Samuels
p39
sasS'references'
p40
(dp41
g12
(lp42
(dp43
g5
S'2357'
p44
sa(dp45
g5
S'719'
p46
sa(dp47
g5
S'683'
p48
sa(dp49
g5
S'80548'
p50
sassS'artist_id'
p51
I2
sg5
I182976
s.