(dp0
S'album'
p1
(dp2
S'name'
p3
S'Funkdafied'
p4
sS'id'
p5
I1959
ssS'description_refs'
p6
(dp7
sS'artist'
p8
S'Da Brat'
p9
sS'title'
p10
S'Funkdafied'
p11
sS'featured_artists'
p12
(lp13
(dp14
g5
I3264
sg8
VJermaine Dupri
p15
sasS'references'
p16
(dp17
S'song_unannotated'
p18
(lp19
(dp20
g5
S'15472'
p21
sassS'artist_id'
p22
I1679
sg5
I15479
s.