(dp0
S'album'
p1
(dp2
S'name'
p3
S'Dutty Rock'
p4
sS'id'
p5
I6553
ssS'description_refs'
p6
(dp7
sS'artist'
p8
S'Sean Paul'
p9
sS'title'
p10
S'Get Busy'
p11
sS'references'
p12
(dp13
sS'artist_id'
p14
I740
sg5
I33067
s.