(dp0
S'album'
p1
(dp2
S'name'
p3
S'Disturbing tha Peace'
p4
sS'id'
p5
I2308
ssS'description_refs'
p6
(dp7
sS'artist'
p8
S'Shawnna'
p9
sS'title'
p10
S"Gettin' Some"
p11
sS'references'
p12
(dp13
sS'artist_id'
p14
I988
sg5
I16914
s.