(dp0
S'album'
p1
(dp2
S'name'
p3
S'Ms. Anonymous - EP'
p4
sS'id'
p5
I139907
ssS'description_refs'
p6
(dp7
g1
(lp8
(dp9
g3
VPeople Keep Talking
p10
sg5
S'111213'
p11
sasS'song_unannotated'
p12
(lp13
(dp14
g5
S'519849'
p15
sa(dp16
g5
S'519864'
p17
sassS'artist'
p18
S'Max'
p19
sS'title'
p20
S'Gibberish'
p21
sS'featured_artists'
p22
(lp23
(dp24
g5
I2057
sg18
VHoodie Allen
p25
sasS'references'
p26
(dp27
S'song'
p28
(lp29
(dp30
g18
VJay Z
p31
sg5
S'497'
p32
sg20
V99 Problems
p33
sassS'artist_id'
p34
I15071
sg5
I730057
s.