(dp0
S'description_refs'
p1
(dp2
S'album'
p3
(lp4
(dp5
S'name'
p6
VBeauty Behind the Madness
p7
sS'id'
p8
S'127525'
p9
sasS'song_unannotated'
p10
(lp11
(dp12
g8
S'131285'
p13
sa(dp14
g8
S'42480'
p15
sa(dp16
g8
S'61972'
p17
sasS'other'
p18
(lp19
(dp20
g8
S'2273462'
p21
sS'title'
p22
VAcquainted
p23
sasS'artist'
p24
(lp25
(dp26
g6
VAriana Grande
p27
sg8
S'26507'
p28
sassg24
S'The Weeknd'
p29
sg22
S"Girls Born in the 90's"
p30
sS'producers'
p31
(lp32
(dp33
g8
I27835
sg24
VMax Martin
p34
sasS'references'
p35
(dp36
g3
(lp37
(dp38
g6
VHouse of Balloons
p39
sg8
S'11144'
p40
sasg10
(lp41
(dp42
g8
S'56953'
p43
sa(dp44
g8
S'639914'
p45
sa(dp46
g8
S'460183'
p47
sa(dp48
g8
S'94470'
p49
sasg18
(lp50
(dp51
g8
S'212522'
p52
sg22
VAdaptation
p53
sassS'artist_id'
p54
I2358
sg8
I1913178
s.