(dp0
S'album'
p1
(dp2
S'name'
p3
S'Suffering From Success'
p4
sS'id'
p5
I31909
ssS'description_refs'
p6
(dp7
sS'artist'
p8
S'Mavado'
p9
sS'title'
p10
S'Give It All To Me'
p11
sS'featured_artists'
p12
(lp13
(dp14
g5
I92
sg8
VNicki Minaj
p15
sasS'producers'
p16
(lp17
(dp18
g5
I158
sg8
VDJ Khaled
p19
sa(dp20
g5
I67747
sg8
VJa Productions
p21
sasS'references'
p22
(dp23
sS'artist_id'
p24
I2362
sg5
I209861
s.