(dp0
S'album'
p1
(dp2
S'name'
p3
S'In Colour'
p4
sS'id'
p5
I122645
ssS'description_refs'
p6
(dp7
S'song_unannotated'
p8
(lp9
(dp10
g5
S'433352'
p11
sa(dp12
g5
S'433361'
p13
sa(dp14
g5
S'733063'
p15
sassS'artist'
p16
S'Jamie xx'
p17
sS'title'
p18
S'Gosh'
p19
sS'references'
p20
(dp21
sS'artist_id'
p22
I31426
sg5
I734517
s.