(dp0
S'album'
p1
(dp2
S'name'
p3
S'Collegrove'
p4
sS'id'
p5
I144167
ssS'description_refs'
p6
(dp7
S'artist'
p8
(lp9
(dp10
g3
V2 Chainz
p11
sg5
S'14325'
p12
sa(dp13
g3
VLil Wayne
p14
sg5
S'4'
p15
sassg8
S'2 Chainz & Lil Wayne'
p16
sS'title'
p17
S'Gotta Lotta'
p18
sS'featured_artists'
p19
(lp20
(dp21
g5
I4
sg8
VLil Wayne
p22
sasS'producers'
p23
(lp24
(dp25
g5
I146
sg8
VMannie Fresh
p26
sasS'references'
p27
(dp28
sS'artist_id'
p29
I639789
sg5
I2433137
s.