(dp0
S'album'
p1
(dp2
S'name'
p3
S'Hall of Fame'
p4
sS'id'
p5
I23080
ssS'description_refs'
p6
(dp7
sS'artist'
p8
S'Big Sean'
p9
sS'title'
p10
S'Guap'
p11
sS'featured_artists'
p12
(lp13
(dp14
g5
I72
sg8
VKanye West
p15
sasS'producers'
p16
(lp17
(dp18
g5
I27638
sg8
VKeY Wane
p19
sa(dp20
g5
I27606
sg8
VYoung Chop
p21
sasS'references'
p22
(dp23
S'song_unannotated'
p24
(lp25
(dp26
g5
S'87383'
p27
sasg8
(lp28
(dp29
g3
VBirdman
p30
sg5
S'86'
p31
sassS'artist_id'
p32
I492
sg5
I94434
s.