(dp0
S'album'
p1
(dp2
S'name'
p3
S"Somethin' Bout Kreay"
p4
sS'id'
p5
I17201
ssS'description_refs'
p6
(dp7
S'song_unannotated'
p8
(lp9
(dp10
g5
S'50512'
p11
sa(dp12
g5
S'52262'
p13
sasS'artist'
p14
(lp15
(dp16
g3
VKreayshawn
p17
sg5
S'11716'
p18
sa(dp19
g3
VSoulja Boy
p20
sg5
S'1194'
p21
sa(dp22
g3
VLil B
p23
sg5
S'455'
p24
sa(dp25
g3
VOdd Future
p26
sg5
S'1739'
p27
sa(dp28
g3
VJasper Dolphin
p29
sg5
S'11595'
p30
sa(dp31
g3
VKreayshawn
p32
sg5
S'11716'
p33
sassg14
S'Kreayshawn'
p34
sS'title'
p35
S'Gucci Gucci'
p36
sS'producers'
p37
(lp38
(dp39
g5
I36321
sg14
VAdeptus
p40
sa(dp41
g5
I36320
sg14
VDJ Two Stacks
p42
sasS'references'
p43
(dp44
sS'artist_id'
p45
I11716
sg5
I50156
s.