(dp0
S'album'
p1
(dp2
S'name'
p3
S'No Label II'
p4
sS'id'
p5
I104703
ssS'description_refs'
p6
(dp7
sS'artist'
p8
S'Migos'
p9
sS'title'
p10
S'Handsome and Wealthy'
p11
sS'producers'
p12
(lp13
(dp14
g5
I366454
sg8
VCheeze Beatz
p15
sasS'writers'
p16
(lp17
(dp18
g5
I61600
sg8
VQuavo
p19
sa(dp20
g5
I148761
sg8
VTakeoff
p21
sa(dp22
g5
I88813
sg8
VOffset
p23
sasS'references'
p24
(dp25
S'song_unannotated'
p26
(lp27
(dp28
g5
S'1267'
p29
sa(dp30
g5
S'474183'
p31
sasg8
(lp32
(dp33
g3
VQuavo
p34
sg5
S'61600'
p35
sa(dp36
g3
VMigos
p37
sg5
S'44080'
p38
sassS'artist_id'
p39
I44080
sg5
I372211
s.