(dp0
S'album'
p1
(dp2
S'name'
p3
S'Keep It Hid'
p4
sS'id'
p5
I98778
ssS'description_refs'
p6
(dp7
sS'artist'
p8
S'Dan Auerbach'
p9
sS'title'
p10
S'Heartbroken, In Disrepair'
p11
sS'references'
p12
(dp13
sS'artist_id'
p14
I11577
sg5
I700112
s.