(dp0
S'description_refs'
p1
(dp2
S'album'
p3
(lp4
(dp5
S'name'
p6
VNothing Was the Same
p7
sS'id'
p8
S'40475'
p9
sasS'artist'
p10
(lp11
(dp12
g6
VPARTYNEXTDOOR
p13
sg8
S'47131'
p14
sassg10
S'Drake'
p15
sS'title'
p16
S'Heat of the Moment'
p17
sS'producers'
p18
(lp19
(dp20
g8
I27612
sg10
VNoah \u201c40\u201d Shebib
p21
sasS'references'
p22
(dp23
g3
(lp24
(dp25
g6
VViews From The 6
p26
sg8
S'132506'
p27
sasg10
(lp28
(dp29
g6
VChris Brown
p30
sg8
S'438'
p31
sa(dp32
g6
VRihanna
p33
sg8
S'89'
p34
sassS'artist_id'
p35
I130
sg8
I240199
s.