(dp0
S'album'
p1
(dp2
S'name'
p3
S"I'm Up"
p4
sS'id'
p5
I141430
ssS'description_refs'
p6
(dp7
sS'title'
p8
S'Hercules'
p9
sS'artist'
p10
S'Young Thug'
p11
sS'producers'
p12
(lp13
(dp14
g5
I33010
sg10
VMetro Boomin
p15
sasS'references'
p16
(dp17
g1
(lp18
(dp19
g3
VBarter 6
p20
sg5
S'122065'
p21
sasS'song_unannotated'
p22
(lp23
(dp24
S'id'
p25
S'499835'
p26
sasS'song'
p27
(lp28
(dp29
S'title'
p30
VFreestyle
p31
sg25
S'386316'
p32
sS'artist'
p33
VMigos
p34
sa(dp35
g30
VRidin' in My Chevy
p36
sg25
S'42966'
p37
sg33
VSnoop Dogg
p38
sasg10
(lp39
(dp40
g3
VMigos
p41
sg5
S'44080'
p42
sassS'artist_id'
p43
I20503
sg5
I2369079
s.