(dp0
S'album'
p1
(dp2
S'name'
p3
S'Run-D.M.C.'
p4
sS'id'
p5
I8895
ssS'description_refs'
p6
(dp7
sS'artist'
p8
S'Run-D.M.C.'
p9
sS'title'
p10
S'Here We Go (Live at the Funhouse)'
p11
sS'references'
p12
(dp13
S'song_unannotated'
p14
(lp15
(dp16
g5
S'2424'
p17
sa(dp18
g5
S'40852'
p19
sasg8
(lp20
(dp21
g3
VJ Dilla
p22
sg5
S'224'
p23
sa(dp24
g3
VQuasimoto
p25
sg5
S'2092'
p26
sassS'artist_id'
p27
I1124
sg5
I40840
s.