(dp0
S'album'
p1
(dp2
S'name'
p3
S'I Cry When I Laugh'
p4
sS'id'
p5
I124415
ssS'description_refs'
p6
(dp7
S'artist'
p8
(lp9
(dp10
g3
VClean Bandit
p11
sg5
S'106693'
p12
sassg8
S'Jess Glynne'
p13
sS'title'
p14
S'Hold My Hand'
p15
sS'producers'
p16
(lp17
(dp18
g5
I52676
sg8
VStarsmith
p19
sasS'writers'
p20
(lp21
(dp22
g5
I188054
sg8
VJack Patterson
p23
sa(dp24
g5
I397911
sg8
VJin Jin
p25
sa(dp26
g5
I262801
sg8
VIna Wroldsen
p27
sasS'references'
p28
(dp29
S'song_unannotated'
p30
(lp31
(dp32
g5
S'51898'
p33
sassS'artist_id'
p34
I106694
sg5
I688579
s.