(dp0
S'album'
p1
(dp2
S'name'
p3
S'I Changed A Lot'
p4
sS'id'
p5
I98449
ssS'description_refs'
p6
(dp7
sS'artist'
p8
S'DJ Khaled'
p9
sS'title'
p10
S'Hold You Down'
p11
sS'featured_artists'
p12
(lp13
(dp14
g5
I438
sg8
VChris Brown
p15
sa(dp16
g5
I278
sg8
VJeremih
p17
sa(dp18
g5
I25418
sg8
VAugust Alsina
p19
sa(dp20
g5
I2197
sg8
VFuture
p21
sasS'producers'
p22
(lp23
(dp24
g5
I461581
sg8
VLDB
p25
sa(dp26
g5
I407925
sg8
VBkorn
p27
sa(dp28
g5
I34529
sg8
VLee On The Beats
p29
sasS'references'
p30
(dp31
sS'artist_id'
p32
I158
sg5
I493169
s.