(dp0
S'album'
p1
(dp2
S'name'
p3
S'2001'
p4
sS'id'
p5
I2605
ssS'description_refs'
p6
(dp7
sS'artist'
p8
S'Dr. Dre'
p9
sS'title'
p10
S'Housewife'
p11
sS'featured_artists'
p12
(lp13
(dp14
g5
I170
sg8
VKurupt
p15
sa(dp16
g5
I695
sg8
VHittman
p17
sasS'producers'
p18
(lp19
(dp20
g5
I2470
sg8
VMel-Man
p21
sasS'writers'
p22
(lp23
(dp24
g5
I695
sg8
VHittman
p25
sa(dp26
g5
I1129
sg8
VThe D.O.C.
p27
sa(dp28
g5
I170
sg8
VKurupt
p29
sasS'references'
p30
(dp31
sS'artist_id'
p32
I123
sg5
I2644
s.