(dp0
S'album'
p1
(dp2
S'name'
p3
S'So Far Gone'
p4
sS'id'
p5
I2627
ssS'description_refs'
p6
(dp7
sS'artist'
p8
S'Drake'
p9
sS'title'
p10
S'Houstatlantavegas'
p11
sS'references'
p12
(dp13
sS'artist_id'
p14
I130
sg5
I1016
s.