(dp0
S'album'
p1
(dp2
S'name'
p3
S'Too High To Riot'
p4
sS'id'
p5
I139151
ssS'description_refs'
p6
(dp7
sS'artist'
p8
S'Bas'
p9
sS'title'
p10
S'Housewives'
p11
sS'producers'
p12
(lp13
(dp14
g5
I646277
sg8
VSoundwavve
p15
sasS'writers'
p16
(lp17
(dp18
g5
I196955
sg8
VDavid Medina
p19
sa(dp20
g5
I646278
sg8
VAlex Tapia
p21
sasS'references'
p22
(dp23
g8
(lp24
(dp25
g3
VEleanor Roosevelt
p26
sg5
S'166608'
p27
sassS'artist_id'
p28
I24472
sg5
I2386805
s.