(dp0
S'album'
p1
(dp2
S'name'
p3
S'Brothers'
p4
sS'id'
p5
I39595
ssS'description_refs'
p6
(dp7
sS'artist'
p8
S'The Black Keys'
p9
sS'title'
p10
S"Howlin' For You"
p11
sS'references'
p12
(dp13
sS'artist_id'
p14
I1166
sg5
I66330
s.