(dp0
S'album'
p1
(dp2
S'name'
p3
S'What a Time to Be Alive '
p4
sS'id'
p5
I131405
ssS'description_refs'
p6
(dp7
sS'artist'
p8
S'Drake & Future'
p9
sS'title'
p10
S"I'm the Plug"
p11
sS'featured_artists'
p12
(lp13
(dp14
g5
I2197
sg8
VFuture
p15
sa(dp16
g5
I130
sg8
VDrake
p17
sasS'producers'
p18
(lp19
(dp20
g5
I23315
sg8
VSouthside
p21
sasS'references'
p22
(dp23
S'song_unannotated'
p24
(lp25
(dp26
g5
S'2172126'
p27
sa(dp28
g5
S'2024226'
p29
sa(dp30
g5
S'703731'
p31
sa(dp32
g5
S'486501'
p33
sa(dp34
g5
S'69295'
p35
sa(dp36
g5
S'505193'
p37
sa(dp38
g5
S'2172126'
p39
sasS'other'
p40
(lp41
(dp42
g5
S'2214150'
p43
sg10
VThe Percocet & Stripper Joint
p44
sasg8
(lp45
(dp46
g3
VFuture
p47
sg5
S'2197'
p48
sa(dp49
g3
VDrake
p50
sg5
S'130'
p51
sassS'artist_id'
p52
I568186
sg5
I2311369
s.