(dp0
S'album'
p1
(dp2
S'name'
p3
S'I Remember'
p4
sS'id'
p5
I142305
ssS'description_refs'
p6
(dp7
g1
(lp8
(dp9
g3
VBody Music
p10
sg5
S'40128'
p11
sasS'artist'
p12
(lp13
(dp14
g3
VAlunaGeorge
p15
sg5
S'25131'
p16
sa(dp17
g3
VPopcaan
p18
sg5
S'17195'
p19
sassg12
S'AlunaGeorge'
p20
sS'title'
p21
S"I'm In Control"
p22
sS'featured_artists'
p23
(lp24
(dp25
g5
I17195
sg12
VPopcaan
p26
sasS'writers'
p27
(lp28
(dp29
g5
I17195
sg12
VPopcaan
p30
sa(dp31
g5
I188055
sg12
VMark Ralph
p32
sa(dp33
g5
I412342
sg12
VROMANS
p34
sasS'references'
p35
(dp36
g12
(lp37
(dp38
g3
VLunchmoney Lewis
p39
sg5
S'278452'
p40
sassS'artist_id'
p41
I25131
sg5
I2409818
s.