(dp0
S'album'
p1
(dp2
S'name'
p3
S'We the Best Forever'
p4
sS'id'
p5
I11218
ssS'description_refs'
p6
(dp7
g1
(lp8
(dp9
g3
VWe the Best Forever
p10
sg5
S'11218'
p11
sasS'artist'
p12
(lp13
(dp14
g3
VDJ Khaled
p15
sg5
S'158'
p16
sassg12
S'DJ Khaled'
p17
sS'title'
p18
S"I'm On One"
p19
sS'featured_artists'
p20
(lp21
(dp22
g5
I130
sg12
VDrake
p23
sa(dp24
g5
I88
sg12
VRick Ross
p25
sa(dp26
g5
I4
sg12
VLil Wayne
p27
sasS'producers'
p28
(lp29
(dp30
g5
I27646
sg12
VNikhil "Kromatik" Seetharam
p31
sa(dp32
g5
I27612
sg12
VNoah \u201c40\u201d Shebib
p33
sa(dp34
g5
I27479
sg12
VT-Minus
p35
sasS'references'
p36
(dp37
S'other'
p38
(lp39
(dp40
g5
S'4149'
p41
sg18
VThe Boss
p42
sasg12
(lp43
(dp44
g3
VDrake
p45
sg5
S'130'
p46
sa(dp47
g3
VT-Minus
p48
sg5
S'27479'
p49
sa(dp50
g3
VDrake
p51
sg5
S'130'
p52
sa(dp53
g3
VNoah \u201c40\u201d Shebib
p54
sg5
S'27612'
p55
sasS'song'
p56
(lp57
(dp58
g12
VDrake
p59
sg5
S'51360'
p60
sg18
VTrust Issues
p61
sassS'artist_id'
p62
I158
sg5
I50025
s.