(dp0
S'description_refs'
p1
(dp2
sS'artist'
p3
S'Hank Williams Jr.'
p4
sS'title'
p5
S"I Ain't Sharin' Sharon"
p6
sS'producers'
p7
(lp8
(dp9
S'id'
p10
I154774
sg3
VJack Clement
p11
sasS'references'
p12
(dp13
sS'artist_id'
p14
I7111
sg10
I2440697
s.