(dp0
S'album'
p1
(dp2
S'name'
p3
S'The Truth'
p4
sS'id'
p5
I103105
ssS'description_refs'
p6
(dp7
sS'artist'
p8
S'Ledisi'
p9
sS'title'
p10
S'I Blame You'
p11
sS'references'
p12
(dp13
sS'artist_id'
p14
I3826
sg5
I433542
s.