(dp0
S'album'
p1
(dp2
S'name'
p3
S'Luca Brasi 2'
p4
sS'id'
p5
I115106
ssS'description_refs'
p6
(dp7
sS'artist'
p8
S'Kevin Gates'
p9
sS'title'
p10
S"I Don't Get Tired"
p11
sS'featured_artists'
p12
(lp13
(dp14
g5
I25418
sg8
VAugust Alsina
p15
sasS'producers'
p16
(lp17
(dp18
g5
I29680
sg8
VNic Nac
p19
sasS'references'
p20
(dp21
S'song_unannotated'
p22
(lp23
(dp24
g5
S'118141'
p25
sassS'artist_id'
p26
I30192
sg5
I583542
s.