(dp0
S'album'
p1
(dp2
S'name'
p3
S'Dodge And Burn'
p4
sS'id'
p5
I131672
ssS'description_refs'
p6
(dp7
sS'artist'
p8
S'The Dead Weather'
p9
sS'title'
p10
S'I Feel Love (Every Million Miles)'
p11
sS'references'
p12
(dp13
sS'artist_id'
p14
I177586
sg5
I2302535
s.