(dp0
S'album'
p1
(dp2
S'name'
p3
S'Baby Darling Doll Face Honey'
p4
sS'id'
p5
I57371
ssS'description_refs'
p6
(dp7
sS'artist'
p8
S'Band Of Skulls'
p9
sS'title'
p10
S'I Know What I Am'
p11
sS'references'
p12
(dp13
sS'artist_id'
p14
I93429
sg5
I329151
s.