(dp0
S'description_refs'
p1
(dp2
sS'artist'
p3
S'Pitbull'
p4
sS'title'
p5
S'I Know You Want Me (Calle Ocho) (More English radio edit)'
p6
sS'references'
p7
(dp8
sS'artist_id'
p9
I628
sS'id'
p10
I1548580
s.