(dp0
S'album'
p1
(dp2
S'name'
p3
S'These Things Happen'
p4
sS'id'
p5
I57919
ssS'description_refs'
p6
(dp7
sS'artist'
p8
S'G-Eazy'
p9
sS'title'
p10
S'I Mean It'
p11
sS'featured_artists'
p12
(lp13
(dp14
g5
I13627
sg8
VRemo
p15
sasS'producers'
p16
(lp17
(dp18
g5
I13627
sg8
VRemo
p19
sa(dp20
g5
I35155
sg8
VChristoph Andersson
p21
sasS'references'
p22
(dp23
g1
(lp24
(dp25
g3
VThese Things Happen
p26
sg5
S'57919'
p27
sasS'song_unannotated'
p28
(lp29
(dp30
g5
S'466897'
p31
sa(dp32
g5
S'110325'
p33
sa(dp34
g5
S'380538'
p35
sasS'song'
p36
(lp37
(dp38
g8
VG-Eazy
p39
sg5
S'88378'
p40
sg10
VLady Killers
p41
sa(dp42
g8
VG-Eazy
p43
sg5
S'415574'
p44
sg10
VLotta That
p45
sasg8
(lp46
(dp47
g3
VRick Ross
p48
sg5
S'88'
p49
sassS'artist_id'
p50
I11395
sg5
I376091
s.