(dp0
S'album'
p1
(dp2
S'name'
p3
S'Back to the Traphouse'
p4
sS'id'
p5
I3514
ssS'description_refs'
p6
(dp7
sS'artist'
p8
S'Gucci Mane'
p9
sS'title'
p10
S'I Might Be'
p11
sS'featured_artists'
p12
(lp13
(dp14
g5
I988
sg8
VShawnna
p15
sa(dp16
g5
I42
sg8
VThe Game
p17
sasS'producers'
p18
(lp19
(dp20
g5
I27822
sg8
VZaytoven
p21
sasS'references'
p22
(dp23
g1
(lp24
(dp25
g3
VHard to Kill
p26
sg5
S'3516'
p27
sasS'song_unannotated'
p28
(lp29
(dp30
g5
S'2269'
p31
sa(dp32
g5
S'2269'
p33
sa(dp34
g5
S'2468'
p35
sa(dp36
g5
S'18506'
p37
sasg8
(lp38
(dp39
g3
VE-40
p40
sg5
S'405'
p41
sa(dp42
g3
VIce Cube
p43
sg5
S'186'
p44
sa(dp45
g3
VKanye West
p46
sg5
S'72'
p47
sassS'artist_id'
p48
I13
sg5
I21902
s.