(dp0
S'description_refs'
p1
(dp2
sS'artist'
p3
S'Puff Daddy'
p4
sS'title'
p5
S'I need a girl (part one) (feat. usher & loon) - amended version'
p6
sS'references'
p7
(dp8
sS'artist_id'
p9
I82
sS'id'
p10
I2112517
s.