(dp0
S'album'
p1
(dp2
S'name'
p3
S'Babel'
p4
sS'id'
p5
I21259
ssS'description_refs'
p6
(dp7
sS'artist'
p8
S'Mumford & Sons'
p9
sS'title'
p10
S'I Will Wait'
p11
sS'references'
p12
(dp13
sS'artist_id'
p14
I1170
sg5
I87884
s.