(dp0
S'album'
p1
(dp2
S'name'
p3
S'Dorrough Music'
p4
sS'id'
p5
I2561
ssS'description_refs'
p6
(dp7
sS'artist'
p8
S'Dorrough'
p9
sS'title'
p10
S'Ice Cream Paint Job'
p11
sS'references'
p12
(dp13
sS'artist_id'
p14
I271
sg5
I17807
s.