(dp0
S'album'
p1
(dp2
S'name'
p3
S'R.'
p4
sS'id'
p5
I6152
ssS'description_refs'
p6
(dp7
sS'artist'
p8
S'R. Kelly'
p9
sS'title'
p10
S'If I Could Turn Back the Hands of Time'
p11
sS'references'
p12
(dp13
sS'artist_id'
p14
I535
sg5
I518484
s.