(dp0
S'album'
p1
(dp2
S'name'
p3
S"Get Rich or Die Tryin'"
p4
sS'id'
p5
I141
ssS'description_refs'
p6
(dp7
S'artist'
p8
(lp9
(dp10
g3
VDr. Dre
p11
sg5
S'123'
p12
sassg8
S'50 Cent'
p13
sS'title'
p14
S'In Da Club'
p15
sS'producers'
p16
(lp17
(dp18
g5
I34793
sg8
VMike Elizondo
p19
sa(dp20
g5
I123
sg8
VDr. Dre
p21
sasS'writers'
p22
(lp23
(dp24
g5
I123
sg8
VDr. Dre
p25
sa(dp26
g5
I34793
sg8
VMike Elizondo
p27
sasS'references'
p28
(dp29
S'song_unannotated'
p30
(lp31
(dp32
g5
S'1098'
p33
sa(dp34
g5
S'1098'
p35
sa(dp36
g5
S'132686'
p37
sa(dp38
g5
S'444352'
p39
sa(dp40
g5
S'1685'
p41
sasg8
(lp42
(dp43
g3
VXzibit
p44
sg5
S'291'
p45
sa(dp46
g3
VDr. Dre
p47
sg5
S'123'
p48
sa(dp49
g3
VEminem
p50
sg5
S'45'
p51
sassS'artist_id'
p52
I108
sg5
I233
s.