(dp0
S'album'
p1
(dp2
S'name'
p3
S'The Senior'
p4
sS'id'
p5
I6055
ssS'description_refs'
p6
(dp7
sS'artist'
p8
S'Ginuwine'
p9
sS'title'
p10
S'In Those Jeans'
p11
sS'producers'
p12
(lp13
(dp14
g5
I189797
sg8
VJerry "Juke" Vines
p15
sasS'references'
p16
(dp17
sS'artist_id'
p18
I816
sg5
I112079
s.