(dp0
S'album'
p1
(dp2
S'name'
p3
S'2014 Forest Hills Drive'
p4
sS'id'
p5
I115138
ssS'description_refs'
p6
(dp7
S'song_unannotated'
p8
(lp9
(dp10
g5
S'496704'
p11
sassS'artist'
p12
S'J. Cole'
p13
sS'title'
p14
S'Intro (2014 Forest Hills Drive)'
p15
sS'references'
p16
(dp17
g1
(lp18
(dp19
g3
VThe Come Up Vol. 1
p20
sg5
S'10943'
p21
sasg8
(lp22
(dp23
g5
S'496704'
p24
sa(dp25
g5
S'599415'
p26
sa(dp27
g5
S'1494111'
p28
sa(dp29
g5
S'93987'
p30
sasS'other'
p31
(lp32
(dp33
g5
S'608409'
p34
sg14
V2014 Forest Hills Drive [Credits]
p35
sassS'artist_id'
p36
I69
sg5
I599395
s.