(dp0
S'description_refs'
p1
(dp2
sS'artist'
p3
S'Boyz II Men'
p4
sS'title'
p5
S"It's So Hard to Say Goodbye to Yesterday (radio version)"
p6
sS'references'
p7
(dp8
sS'artist_id'
p9
I440
sS'id'
p10
I1839127
s.