(dp0
S'description_refs'
p1
(dp2
sS'artist'
p3
S'Shaggy (Ft. Ricardo Ducent)'
p4
sS'title'
p5
S"It Wasn't Me (Album&Clean Version)"
p6
sS'references'
p7
(dp8
sS'artist_id'
p9
I551949
sS'id'
p10
I2283589
s.