(dp0
S'album'
p1
(dp2
S'name'
p3
S'The Water[s]'
p4
sS'id'
p5
I108335
ssS'description_refs'
p6
(dp7
S'song_unannotated'
p8
(lp9
(dp10
g5
S'110982'
p11
sasS'artist'
p12
(lp13
(dp14
g3
VYael Naim
p15
sg5
S'1404'
p16
sa(dp17
g3
VBritney Spears
p18
sg5
S'1052'
p19
sassg12
S'Mick Jenkins'
p20
sS'title'
p21
S'Jazz'
p22
sS'producers'
p23
(lp24
(dp25
g5
I48163
sg12
VOnGaud
p26
sasS'references'
p27
(dp28
sS'artist_id'
p29
I34513
sg5
I491142
s.