(dp0
S'album'
p1
(dp2
S'name'
p3
S'What a Time to Be Alive '
p4
sS'id'
p5
I131405
ssS'description_refs'
p6
(dp7
sS'artist'
p8
S'Drake & Future'
p9
sS'title'
p10
S'Jersey'
p11
sS'featured_artists'
p12
(lp13
(dp14
g5
I2197
sg8
VFuture
p15
sasS'producers'
p16
(lp17
(dp18
g5
I23315
sg8
VSouthside
p19
sa(dp20
g5
I33010
sg8
VMetro Boomin
p21
sasS'references'
p22
(dp23
g8
(lp24
(dp25
g3
V2Pac
p26
sg5
S'59'
p27
sassS'artist_id'
p28
I568186
sg5
I2311370
s.