(dp0
S'album'
p1
(dp2
S'name'
p3
S'Godfather Buried Alive'
p4
sS'id'
p5
I9202
ssS'description_refs'
p6
(dp7
sS'artist'
p8
S'Shyne'
p9
sS'title'
p10
S'Jimmy Choo'
p11
sS'featured_artists'
p12
(lp13
(dp14
g5
I2675
sg8
VAshanti
p15
sasS'references'
p16
(dp17
S'song_unannotated'
p18
(lp19
(dp20
g5
S'42257'
p21
sassS'artist_id'
p22
I1513
sg5
I42265
s.