(dp0
S'description_refs'
p1
(dp2
S'album'
p3
(lp4
(dp5
S'name'
p6
VFetty Wap 
p7
sS'id'
p8
S'129747'
p9
sasS'song_unannotated'
p10
(lp11
(dp12
g8
S'2390938'
p13
sa(dp14
g8
S'46329'
p15
sa(dp16
g8
S'32795'
p17
sa(dp18
g8
S'42265'
p19
sassS'artist'
p20
S'Fetty Wap'
p21
sS'title'
p22
S'Jimmy Choo'
p23
sS'producers'
p24
(lp25
(dp26
g8
I27689
sg20
VKE on the Track
p27
sasS'references'
p28
(dp29
g10
(lp30
(dp31
g8
S'2365'
p32
sa(dp33
g8
S'696428'
p34
sa(dp35
g8
S'696428'
p36
sa(dp37
g8
S'496456'
p38
sasS'song'
p39
(lp40
(dp41
g20
VFetty Wap
p42
sg8
S'496445'
p43
sg22
VTrap Queen
p44
sa(dp45
g20
VFetty Wap
p46
sg8
S'653082'
p47
sg22
VMy Way
p48
sassS'artist_id'
p49
I216609
sg8
I2347642
s.