(dp0
S'album'
p1
(dp2
S'name'
p3
S'Z'
p4
sS'id'
p5
I42662
ssS'description_refs'
p6
(dp7
sS'artist'
p8
S'SZA'
p9
sS'title'
p10
S'Julia'
p11
sS'producers'
p12
(lp13
(dp14
g5
I41569
sg8
VFelix Snow
p15
sasS'references'
p16
(dp17
S'song_unannotated'
p18
(lp19
(dp20
g5
S'376535'
p21
sassS'artist_id'
p22
I41579
sg5
I206760
s.