(dp0
S'description_refs'
p1
(dp2
S'song_unannotated'
p3
(lp4
(dp5
S'id'
p6
S'2322020'
p7
sasS'song'
p8
(lp9
(dp10
S'artist'
p11
VPARTYNEXTDOOR
p12
sg6
S'2322001'
p13
sS'title'
p14
VOVO Freestyle
p15
sa(dp16
g11
VPARTYNEXTDOOR
p17
sg6
S'2322003'
p18
sg14
VSome Of Your Love
p19
sa(dp20
g11
VPARTYNEXTDOOR
p21
sg6
S'2322004'
p22
sg14
VMake It Rain
p23
sa(dp24
g11
VPARTYNEXTDOOR
p25
sg6
S'2322011'
p26
sg14
VWait For You
p27
sa(dp28
g11
VPARTYNEXTDOOR
p29
sg6
S'2322010'
p30
sg14
VCodeine Bumpin'
p31
sa(dp32
g11
VPARTYNEXTDOOR
p33
sg6
S'2322009'
p34
sg14
VAll I Wanna Know
p35
sasg11
(lp36
(dp37
S'name'
p38
VTy Dolla $ign
p39
sg6
S'25005'
p40
sa(dp41
g38
VRich The Kid
p42
sg6
S'65109'
p43
sassg11
S'PARTYNEXTDOOR'
p44
sg14
S'Just A Rider'
p45
sS'references'
p46
(dp47
g3
(lp48
(dp49
g6
S'2263710'
p50
sasS'other'
p51
(lp52
(dp53
g6
S'2322014'
p54
sg14
VJust A Rider
p55
sassS'artist_id'
p56
I47131
sg6
I2322014
s.