(dp0
S'description_refs'
p1
(dp2
sS'artist'
p3
S'BartBaker'
p4
sS'title'
p5
S'Katy Perry ft. Juicy J - "Dark Horse" PARODY'
p6
sS'references'
p7
(dp8
S'song_unannotated'
p9
(lp10
(dp11
S'id'
p12
S'131845'
p13
sassS'artist_id'
p14
I20551
sg12
I389694
s.