(dp0
S'album'
p1
(dp2
S'name'
p3
S'Greatest Hits'
p4
sS'id'
p5
I40
ssS'description_refs'
p6
(dp7
S'song_unannotated'
p8
(lp9
(dp10
g5
S'6703'
p11
sassS'artist'
p12
S'2Pac'
p13
sS'title'
p14
S'Keep Ya Head Up'
p15
sS'producers'
p16
(lp17
(dp18
g5
I33348
sg12
VDJ Daryl
p19
sasS'references'
p20
(dp21
g12
(lp22
(dp23
g3
VSalt-N-Pepa
p24
sg5
S'1554'
p25
sassS'artist_id'
p26
I59
sg5
I826
s.