(dp0
S'album'
p1
(dp2
S'name'
p3
S"If You're Reading This It's Too Late"
p4
sS'id'
p5
I119674
ssS'description_refs'
p6
(dp7
sS'artist'
p8
S'Drake'
p9
sS'title'
p10
S'Know Yourself'
p11
sS'producers'
p12
(lp13
(dp14
g5
I662
sg8
VBoi-1da
p15
sasS'writers'
p16
(lp17
(dp18
g5
I662
sg8
VBoi-1da
p19
sa(dp20
g5
I646173
sg8
VMalcolm Nichols
p21
sa(dp22
g5
I27649
sg8
VSyk Sense
p23
sa(dp24
g5
I27616
sg8
VVinylz
p25
sa(dp26
g5
I537002
sg8
VQuentin Miller
p27
sasS'references'
p28
(dp29
S'other'
p30
(lp31
(dp32
g5
S'717330'
p33
sg10
VOnly Man She Want
p34
sasg8
(lp35
(dp36
g3
VPopcaan
p37
sg5
S'17195'
p38
sassS'artist_id'
p39
I130
sg5
I703654
s.