(dp0
S'album'
p1
(dp2
S'name'
p3
S'Konnichiwa'
p4
sS'id'
p5
I120583
ssS'description_refs'
p6
(dp7
S'song'
p8
(lp9
(dp10
S'title'
p11
VOVO Sound Radio Episode 15 Tracklist
p12
sS'id'
p13
S'2422513'
p14
sS'artist'
p15
VDrake
p16
sasS'artist'
p17
(lp18
(dp19
g3
VA$AP Nast
p20
sg5
S'14607'
p21
sa(dp22
g3
VD Double E
p23
sg5
S'2585'
p24
sassS'title'
p25
S'Ladies Hit Squad'
p26
sg17
S'Skepta'
p27
sS'featured_artists'
p28
(lp29
(dp30
g5
I14607
sg17
VA$AP Nast
p31
sa(dp32
g5
I2585
sg17
VD Double E
p33
sasS'references'
p34
(dp35
sS'artist_id'
p36
I1713
sg5
I2422646
s.