(dp0
S'album'
p1
(dp2
S'name'
p3
S'Diamond Princess'
p4
sS'id'
p5
I10145
ssS'description_refs'
p6
(dp7
sS'artist'
p8
S'Trina'
p9
sS'title'
p10
S'Ladies 1st'
p11
sS'featured_artists'
p12
(lp13
(dp14
g5
I458
sg8
VEve
p15
sasS'producers'
p16
(lp17
(dp18
g5
I49606
sg8
VCool
p19
sa(dp20
g5
I523
sg8
VDre
p21
sasS'references'
p22
(dp23
sS'artist_id'
p24
I117
sg5
I46329
s.