(dp0
S'album'
p1
(dp2
S'name'
p3
S'Must Be Nice'
p4
sS'id'
p5
I19562
ssS'description_refs'
p6
(dp7
S'artist'
p8
(lp9
(dp10
g3
VHoodie Allen
p11
sg5
S'2057'
p12
sassg8
S'G-Eazy'
p13
sS'title'
p14
S'Lady Killers'
p15
sS'featured_artists'
p16
(lp17
(dp18
g5
I2057
sg8
VHoodie Allen
p19
sasS'references'
p20
(dp21
sS'artist_id'
p22
I11395
sg5
I88378
s.