(dp0
S'album'
p1
(dp2
S'name'
p3
S'The Art Of Hustle'
p4
sS'id'
p5
I107952
ssS'description_refs'
p6
(dp7
g1
(lp8
(dp9
g3
VThe Art Of Hustle
p10
sg5
S'107952'
p11
sasS'artist'
p12
(lp13
(dp14
g3
VE-40
p15
sg5
S'405'
p16
sa(dp17
g3
VThe MeKanics
p18
sg5
S'36326'
p19
sassS'title'
p20
S'Law'
p21
sg12
S'Yo Gotti'
p22
sS'featured_artists'
p23
(lp24
(dp25
g5
I405
sg12
VE-40
p26
sasS'producers'
p27
(lp28
(dp29
g5
I36326
sg12
VThe MeKanics
p30
sasS'writers'
p31
(lp32
(dp33
g5
I405
sg12
VE-40
p34
sasS'references'
p35
(dp36
S'song'
p37
(lp38
(dp39
S'title'
p40
VLet Me Find Out (Remix)
p41
sS'id'
p42
S'149774'
p43
sS'artist'
p44
VDoe B
p45
sasg12
(lp46
(dp47
g3
VT.I.
p48
sg5
S'85'
p49
sa(dp50
g3
VDoe B
p51
sg5
S'49343'
p52
sassS'artist_id'
p53
I118
sg5
I2425602
s.