(dp0
S'album'
p1
(dp2
S'name'
p3
S'Deeper Than Rap'
p4
sS'id'
p5
I8752
ssS'description_refs'
p6
(dp7
sS'artist'
p8
S'Rick Ross'
p9
sS'title'
p10
S'Lay Back'
p11
sS'featured_artists'
p12
(lp13
(dp14
g5
I459
sg8
VRobin Thicke
p15
sasS'producers'
p16
(lp17
(dp18
g5
I27589
sg8
VThe Runners
p19
sa(dp20
g5
I27604
sg8
VThe Monarch
p21
sasS'references'
p22
(dp23
sS'artist_id'
p24
I88
sg5
I40221
s.