(dp0
S'album'
p1
(dp2
S'name'
p3
S'Lazaretto'
p4
sS'id'
p5
I90994
ssS'description_refs'
p6
(dp7
S'other'
p8
(lp9
(dp10
g5
S'703678'
p11
sS'title'
p12
VPower of My Love
p13
sassS'artist'
p14
S'Jack White'
p15
sg12
S'Lazaretto'
p16
sS'references'
p17
(dp18
sS'artist_id'
p19
I12459
sg5
I409461
s.