(dp0
S'album'
p1
(dp2
S'name'
p3
S'R.E.D.'
p4
sS'id'
p5
I22124
ssS'description_refs'
p6
(dp7
sS'artist'
p8
S'Ne-Yo'
p9
sS'title'
p10
S'Let Me Love You (Until You Learn to Love Yourself)'
p11
sS'producers'
p12
(lp13
(dp14
g5
I27578
sg8
VStarGate
p15
sa(dp16
g5
I27577
sg8
VMike Di Scala
p17
sa(dp18
g5
I27576
sg8
VMark Hadfield
p19
sasS'writers'
p20
(lp21
(dp22
g5
I16775
sg8
VSia
p23
sasS'references'
p24
(dp25
sS'artist_id'
p26
I375
sg5
I92862
s.