(dp0
S'album'
p1
(dp2
S'name'
p3
S'Paperwork: The Motion Picture'
p4
sS'id'
p5
I108787
ssS'description_refs'
p6
(dp7
sS'artist'
p8
S'T.I.'
p9
sS'title'
p10
S'Let Your Heart Go (Break My Soul)'
p11
sS'featured_artists'
p12
(lp13
(dp14
g5
I1181
sg8
VThe-Dream
p15
sasS'producers'
p16
(lp17
(dp18
g5
I27603
sg8
VTricky Stewart
p19
sa(dp20
g5
I1181
sg8
VThe-Dream
p21
sasS'references'
p22
(dp23
sS'artist_id'
p24
I85
sg5
I547918
s.