(dp0
S'album'
p1
(dp2
S'name'
p3
S'Scorpion'
p4
sS'id'
p5
I2984
ssS'description_refs'
p6
(dp7
sS'artist'
p8
S'Eve'
p9
sS'title'
p10
S'Let Me Blow Ya Mind'
p11
sS'featured_artists'
p12
(lp13
(dp14
g5
I1893
sg8
VGwen Stefani
p15
sasS'producers'
p16
(lp17
(dp18
g5
I10233
sg8
VScott Storch
p19
sa(dp20
g5
I123
sg8
VDr. Dre
p21
sasS'writers'
p22
(lp23
(dp24
g5
I576345
sg8
VSteven Jordan
p25
sa(dp26
g5
I10233
sg8
VScott Storch
p27
sa(dp28
g5
I34793
sg8
VMike Elizondo
p29
sa(dp30
g5
I123
sg8
VDr. Dre
p31
sasS'references'
p32
(dp33
g1
(lp34
(dp35
g3
VHard Core
p36
sg5
S'4919'
p37
sasg8
(lp38
(dp39
g3
VLil Kim
p40
sg5
S'411'
p41
sassS'artist_id'
p42
I458
sg5
I19348
s.