(dp0
S'album'
p1
(dp2
S'name'
p3
S'Turning Point'
p4
sS'id'
p5
I5422
ssS'description_refs'
p6
(dp7
g1
(lp8
(dp9
g3
VMario
p10
sg5
S'101492'
p11
sa(dp12
g3
VTurning Point
p13
sg5
S'5422'
p14
sasS'artist'
p15
(lp16
(dp17
g3
VNe-Yo
p18
sg5
S'375'
p19
sassg15
S'Mario'
p20
sS'title'
p21
S'Let Me Love You'
p22
sS'producers'
p23
(lp24
(dp25
g5
I10233
sg15
VScott Storch
p26
sa(dp27
g5
I375
sg15
VNe-Yo
p28
sasS'references'
p29
(dp30
sS'artist_id'
p31
I282
sg5
I73037
s.