(dp0
S'album'
p1
(dp2
S'name'
p3
S'Careless World: Rise Of The Last King'
p4
sS'id'
p5
I14119
ssS'description_refs'
p6
(dp7
sS'artist'
p8
S'Tyga'
p9
sS'title'
p10
S'Let It Show'
p11
sS'featured_artists'
p12
(lp13
(dp14
g5
I69
sg8
VJ. Cole
p15
sasS'producers'
p16
(lp17
(dp18
g5
I49606
sg8
VCool
p19
sa(dp20
g5
I523
sg8
VDre
p21
sasS'references'
p22
(dp23
g1
(lp24
(dp25
g3
VBorn Sinner
p26
sg5
S'23882'
p27
sa(dp28
g3
VYeezus
p29
sg5
S'34024'
p30
sassS'artist_id'
p31
I554
sg5
I65947
s.