(dp0
S'description_refs'
p1
(dp2
S'artist'
p3
(lp4
(dp5
S'name'
p6
VBirdman
p7
sS'id'
p8
S'86'
p9
sa(dp10
g6
VRich Gang
p11
sg8
S'46060'
p12
sa(dp13
g6
VYoung Thug
p14
sg8
S'20503'
p15
sa(dp16
g6
VRich Homie Quan
p17
sg8
S'24823'
p18
sassg3
S'Rich Gang'
p19
sS'title'
p20
S'Lifestyle'
p21
sS'featured_artists'
p22
(lp23
(dp24
g8
I86
sg3
VBirdman
p25
sa(dp26
g8
I20503
sg3
VYoung Thug
p27
sa(dp28
g8
I24823
sg3
VRich Homie Quan
p29
sasS'producers'
p30
(lp31
(dp32
g8
I44575
sg3
VLondon On Da Track
p33
sasS'references'
p34
(dp35
S'song_unannotated'
p36
(lp37
(dp38
g8
S'25'
p39
sasS'other'
p40
(lp41
(dp42
g8
S'382154'
p43
sg20
VHookah
p44
sasg3
(lp45
(dp46
g6
VYoung Thug
p47
sg8
S'20503'
p48
sa(dp49
g6
VLondon On Da Track
p50
sg8
S'44575'
p51
sa(dp52
g6
VYoung Thug
p53
sg8
S'20503'
p54
sa(dp55
g6
VLondon On Da Track
p56
sg8
S'44575'
p57
sa(dp58
g6
VSkooly
p59
sg8
S'17862'
p60
sa(dp61
g6
VRich Kidz
p62
sg8
S'1486'
p63
sa(dp64
g6
VR. Kelly
p65
sg8
S'535'
p66
sassS'artist_id'
p67
I46060
sg8
I440618
s.