(dp0
S'album'
p1
(dp2
S'name'
p3
S'Justified'
p4
sS'id'
p5
I6424
ssS'description_refs'
p6
(dp7
sS'artist'
p8
S'Justin Timberlake'
p9
sS'title'
p10
S'Like I Love You'
p11
sS'featured_artists'
p12
(lp13
(dp14
g5
I5
sg8
VClipse
p15
sasS'producers'
p16
(lp17
(dp18
g5
I4617
sg8
VThe Neptunes
p19
sasS'references'
p20
(dp21
S'song_unannotated'
p22
(lp23
(dp24
g5
S'35346'
p25
sasg8
(lp26
(dp27
g3
VN.E.R.D.
p28
sg5
S'747'
p29
sassS'artist_id'
p30
I334
sg5
I32546
s.