(dp0
S'album'
p1
(dp2
S'name'
p3
S'Mind of Mine'
p4
sS'id'
p5
I142850
ssS'description_refs'
p6
(dp7
S'song_unannotated'
p8
(lp9
(dp10
g5
S'2414425'
p11
sa(dp12
g5
S'2403331'
p13
sa(dp14
g5
S'2424454'
p15
sassS'artist'
p16
S'ZAYN'
p17
sS'title'
p18
S'LIKE I WOULD'
p19
sS'references'
p20
(dp21
g8
(lp22
(dp23
g5
S'2414425'
p24
sa(dp25
g5
S'97052'
p26
sasg16
(lp27
(dp28
g3
VOne Direction
p29
sg5
S'19657'
p30
sa(dp31
g3
VOne Direction
p32
sg5
S'19657'
p33
sassS'artist_id'
p34
I339472
sg5
I2435401
s.