(dp0
S'album'
p1
(dp2
S'name'
p3
S'These Things Happen'
p4
sS'id'
p5
I57919
ssS'description_refs'
p6
(dp7
S'artist'
p8
(lp9
(dp10
g3
VA$AP Ferg
p11
sg5
S'15369'
p12
sa(dp13
g3
VDanny Seth
p14
sg5
S'47356'
p15
sassg8
S'G-Eazy'
p16
sS'title'
p17
S'Lotta That'
p18
sS'featured_artists'
p19
(lp20
(dp21
g5
I15369
sg8
VA$AP Ferg
p22
sa(dp23
g5
I47356
sg8
VDanny Seth
p24
sasS'producers'
p25
(lp26
(dp27
g5
I35155
sg8
VChristoph Andersson
p28
sasS'references'
p29
(dp30
S'song_unannotated'
p31
(lp32
(dp33
g5
S'82701'
p34
sassS'artist_id'
p35
I11395
sg5
I415574
s.