(dp0
S'album'
p1
(dp2
S'name'
p3
S'Ambition'
p4
sS'id'
p5
I11426
ssS'description_refs'
p6
(dp7
sS'artist'
p8
S'Wale'
p9
sS'title'
p10
S'Lotus Flower Bomb'
p11
sS'featured_artists'
p12
(lp13
(dp14
g5
I446
sg8
VMiguel
p15
sasS'producers'
p16
(lp17
(dp18
g5
I45235
sg8
VJerrin Howard
p19
sasS'references'
p20
(dp21
sS'artist_id'
p22
I396
sg5
I56477
s.