(dp0
S'album'
p1
(dp2
S'name'
p3
S'2014 Forest Hills Drive'
p4
sS'id'
p5
I115138
ssS'description_refs'
p6
(dp7
S'song_unannotated'
p8
(lp9
(dp10
g5
S'599395'
p11
sassS'title'
p12
S'Love Yourz'
p13
sS'artist'
p14
S'J. Cole'
p15
sS'producers'
p16
(lp17
(dp18
g5
I10418
sg14
V!llmind
p19
sasS'references'
p20
(dp21
g8
(lp22
(dp23
S'id'
p24
S'164344'
p25
sasS'song'
p26
(lp27
(dp28
S'title'
p29
VSnakes in the Grass
p30
sg24
S'2373'
p31
sS'artist'
p32
VWaka Flocka Flame
p33
sa(dp34
g29
VHello
p35
sg24
S'599433'
p36
sg32
VJ. Cole
p37
sasg14
(lp38
(dp39
g3
VWaka Flocka Flame
p40
sg5
S'257'
p41
sassS'artist_id'
p42
I69
sg5
I599451
s.