(dp0
S'album'
p1
(dp2
S'name'
p3
S'Loud'
p4
sS'id'
p5
I6336
ssS'description_refs'
p6
(dp7
S'other'
p8
(lp9
(dp10
g5
S'532'
p11
sS'title'
p12
VLove the Way You Lie
p13
sasS'artist'
p14
(lp15
(dp16
g3
VSkylar Grey
p17
sg5
S'1102'
p18
sassg14
S'Rihanna'
p19
sg12
S'Love the Way You Lie (Part II)'
p20
sS'featured_artists'
p21
(lp22
(dp23
g5
I45
sg14
VEminem
p24
sasS'producers'
p25
(lp26
(dp27
g5
I29473
sg14
VAlex Da Kid
p28
sasS'writers'
p29
(lp30
(dp31
g5
I59124
sg14
VHolly Hafermann
p32
sa(dp33
g5
I635775
sg14
VAlexander Grant
p34
sa(dp35
g5
I422665
sg14
VMarshall Mathers
p36
sasS'references'
p37
(dp38
sS'artist_id'
p39
I89
sg5
I1805
s.