(dp0
S'description_refs'
p1
(dp2
sS'artist'
p3
S'Ellie Goulding'
p4
sS'title'
p5
S'Love Me Like You Do (From "Fifty Shades Of Grey") by Ellie Goulding'
p6
sS'references'
p7
(dp8
sS'artist_id'
p9
I1838
sS'id'
p10
I1860893
s.