(dp0
S'album'
p1
(dp2
S'name'
p3
S'Trouble Man: Heavy Is the Head'
p4
sS'id'
p5
I25420
ssS'description_refs'
p6
(dp7
sS'artist'
p8
S'T.I.'
p9
sS'title'
p10
S'Love This Life'
p11
sS'producers'
p12
(lp13
(dp14
g5
I33494
sg8
V1500 or Nothin'
p15
sasS'references'
p16
(dp17
sS'artist_id'
p18
I85
sg5
I70012
s.