(dp0
S'album'
p1
(dp2
S'name'
p3
S'EVOL'
p4
sS'id'
p5
I143267
ssS'description_refs'
p6
(dp7
S'song_unannotated'
p8
(lp9
(dp10
g5
S'2396309'
p11
sa(dp12
g5
S'2417474'
p13
sasS'artist'
p14
(lp15
(dp16
g3
VFuture
p17
sg5
S'2197'
p18
sassS'title'
p19
S'Low Life'
p20
sg14
S'Future'
p21
sS'featured_artists'
p22
(lp23
(dp24
g5
I2358
sg14
VThe Weeknd
p25
sasS'producers'
p26
(lp27
(dp28
g5
I2358
sg14
VThe Weeknd
p29
sa(dp30
g5
I33010
sg14
VMetro Boomin
p31
sa(dp32
g5
I34533
sg14
VBen Billions
p33
sasS'references'
p34
(dp35
g1
(lp36
(dp37
g3
VDS2
p38
sg5
S'127543'
p39
sa(dp40
g3
VWhat a Time to Be Alive 
p41
sg5
S'131405'
p42
sasg8
(lp43
(dp44
S'id'
p45
S'460183'
p46
sasS'song'
p47
(lp48
(dp49
S'title'
p50
VCan't Feel My Face
p51
sg45
S'729458'
p52
sS'artist'
p53
VThe Weeknd
p54
sa(dp55
g50
VCan't Feel My Face
p56
sg45
S'729458'
p57
sg53
VThe Weeknd
p58
sa(dp59
g50
VI'm the Plug
p60
sg45
S'2311369'
p61
sg53
VDrake & Future
p62
sassS'artist_id'
p63
I2197
sg5
I2396302
s.