(dp0
S'album'
p1
(dp2
S'name'
p3
S'Ghost Stories'
p4
sS'id'
p5
I85921
ssS'description_refs'
p6
(dp7
S'artist'
p8
(lp9
(dp10
g3
VColdplay
p11
sg5
S'8351'
p12
sassg8
S'Coldplay'
p13
sS'title'
p14
S'Magic'
p15
sS'references'
p16
(dp17
g8
(lp18
(dp19
g3
VGeorge Jones
p20
sg5
S'47668'
p21
sassS'artist_id'
p22
I8351
sg5
I373966
s.