(dp0
S'description_refs'
p1
(dp2
S'song_unannotated'
p3
(lp4
(dp5
S'id'
p6
S'2322014'
p7
sa(dp8
g6
S'2322010'
p9
sa(dp10
g6
S'2322009'
p11
sa(dp12
g6
S'2322020'
p13
sasS'song'
p14
(lp15
(dp16
S'artist'
p17
VPARTYNEXTDOOR
p18
sg6
S'2322001'
p19
sS'title'
p20
VOVO Freestyle
p21
sa(dp22
g17
VPARTYNEXTDOOR
p23
sg6
S'2322003'
p24
sg20
VSome Of Your Love
p25
sa(dp26
g17
VPARTYNEXTDOOR
p27
sg6
S'2322011'
p28
sg20
VWait For You
p29
sasg17
(lp30
(dp31
S'name'
p32
VTy Dolla $ign
p33
sg6
S'25005'
p34
sa(dp35
g32
VRich The Kid
p36
sg6
S'65109'
p37
sassg17
S'PARTYNEXTDOOR'
p38
sg20
S'Make It Rain'
p39
sS'references'
p40
(dp41
g3
(lp42
(dp43
g6
S'2263710'
p44
sasS'other'
p45
(lp46
(dp47
g6
S'2311369'
p48
sg20
VI'm the Plug
p49
sa(dp50
g6
S'2263710'
p51
sg20
VNo Feelings
p52
sassS'artist_id'
p53
I47131
sg6
I2322004
s.