(dp0
S'album'
p1
(dp2
S'name'
p3
S'What Dreams Are Made Of'
p4
sS'id'
p5
I131335
ssS'description_refs'
p6
(dp7
sS'artist'
p8
S'R. City'
p9
sS'title'
p10
S'Make Up'
p11
sS'featured_artists'
p12
(lp13
(dp14
g5
I154133
sg8
VChloe Angelides
p15
sasS'references'
p16
(dp17
sS'artist_id'
p18
I544871
sg5
I2310181
s.