(dp0
S'album'
p1
(dp2
S'name'
p3
S'V'
p4
sS'id'
p5
I105603
ssS'description_refs'
p6
(dp7
sS'artist'
p8
S'Maroon 5'
p9
sS'title'
p10
S'Maps'
p11
sS'producers'
p12
(lp13
(dp14
g5
I43735
sg8
VNoel Zancanella
p15
sasS'references'
p16
(dp17
S'song_unannotated'
p18
(lp19
(dp20
g5
S'2003'
p21
sa(dp22
g5
S'68718'
p23
sassS'artist_id'
p24
I13539
sg5
I452357
s.