(dp0
S'description_refs'
p1
(dp2
S'song_unannotated'
p3
(lp4
(dp5
S'id'
p6
S'2303265'
p7
sa(dp8
g6
S'707870'
p9
sa(dp10
g6
S'204233'
p11
sasS'artist'
p12
(lp13
(dp14
S'name'
p15
VMonty
p16
sg6
S'19635'
p17
sassg12
S'Fetty Wap'
p18
sS'title'
p19
S'Merry Xmas'
p20
sS'featured_artists'
p21
(lp22
(dp23
g6
I19635
sg12
VMonty
p24
sasS'producers'
p25
(lp26
(dp27
g6
I610928
sg12
VAceSwagBeatz
p28
sasS'references'
p29
(dp30
sS'artist_id'
p31
I216609
sg6
I2390938
s.