(dp0
S'description_refs'
p1
(dp2
S'song'
p3
(lp4
(dp5
S'title'
p6
VMight Be
p7
sS'id'
p8
S'558257'
p9
sS'artist'
p10
VAnderson .Paak
p11
sassS'artist'
p12
S'Luke Nasty'
p13
sS'title'
p14
S'Might Be'
p15
sS'references'
p16
(dp17
S'song'
p18
(lp19
(dp20
S'artist'
p21
VGucci Mane
p22
sS'id'
p23
S'21902'
p24
sS'title'
p25
VI Might Be
p26
sa(dp27
g21
VThe-Dream
p28
sg23
S'59024'
p29
sg25
VShawty is Da Sh*!
p30
sassS'artist_id'
p31
I57899
sS'id'
p32
I2312325
s.