(dp0
S'album'
p1
(dp2
S'name'
p3
S'Venice '
p4
sS'id'
p5
I128954
ssS'description_refs'
p6
(dp7
sS'artist'
p8
S'Anderson .Paak'
p9
sS'title'
p10
S'Might Be'
p11
sS'producers'
p12
(lp13
(dp14
g5
I79676
sg8
VLODEF
p15
sasS'references'
p16
(dp17
sS'artist_id'
p18
I58017
sg5
I558257
s.