(dp0
S'album'
p1
(dp2
S'name'
p3
S'Tasty'
p4
sS'id'
p5
I6288
ssS'description_refs'
p6
(dp7
sS'artist'
p8
S'Kelis'
p9
sS'title'
p10
S'Milkshake'
p11
sS'producers'
p12
(lp13
(dp14
g5
I4617
sg8
VThe Neptunes
p15
sasS'references'
p16
(dp17
sS'artist_id'
p18
I144
sg5
I446608
s.