(dp0
S'description_refs'
p1
(dp2
S'song_unannotated'
p3
(lp4
(dp5
S'id'
p6
S'2625'
p7
sa(dp8
g6
S'2378336'
p9
sassS'artist'
p10
S'2 Milly'
p11
sS'title'
p12
S'Milly Rock'
p13
sS'producers'
p14
(lp15
(dp16
g6
I630057
sg10
VJudoBeatz
p17
sasS'references'
p18
(dp19
sS'artist_id'
p20
I557249
sg6
I2292829
s.