(dp0
S'album'
p1
(dp2
S'name'
p3
S'#ThinkTink'
p4
sS'id'
p5
I118295
ssS'description_refs'
p6
(dp7
S'other'
p8
(lp9
(dp10
g5
S'147111'
p11
sS'title'
p12
VOne In A Million
p13
sassS'artist'
p14
S'Tink'
p15
sg12
S'Million'
p16
sS'producers'
p17
(lp18
(dp19
g5
I112
sg14
VTimbaland
p20
sasS'references'
p21
(dp22
sS'artist_id'
p23
I20064
sg5
I729410
s.