(dp0
S'album'
p1
(dp2
S'name'
p3
S'The Dime Trap'
p4
sS'id'
p5
I144221
ssS'description_refs'
p6
(dp7
sS'artist'
p8
S'T.I.'
p9
sS'title'
p10
S'Money Talk'
p11
sS'producers'
p12
(lp13
(dp14
g5
I589044
sg8
VK.I.P.
p15
sa(dp16
g5
I4337
sg8
VC4
p17
sasS'references'
p18
(dp19
sS'artist_id'
p20
I85
sg5
I2424059
s.