(dp0
S'album'
p1
(dp2
S'name'
p3
S'Hero'
p4
sS'id'
p5
I146537
ssS'description_refs'
p6
(dp7
sS'artist'
p8
S'Maren Morris'
p9
sS'title'
p10
S'My Church'
p11
sS'writers'
p12
(lp13
(dp14
g5
I184255
sg8
VBusbee
p15
sasS'references'
p16
(dp17
S'song_unannotated'
p18
(lp19
(dp20
g5
S'104942'
p21
sa(dp22
g5
S'768236'
p23
sa(dp24
g5
S'768236'
p25
sa(dp26
g5
S'78308'
p27
sa(dp28
g5
S'578019'
p29
sa(dp30
g5
S'78309'
p31
sasg8
(lp32
(dp33
g3
VJohnny Cash
p34
sg5
S'1167'
p35
sa(dp36
g3
VHank Williams Sr.
p37
sg5
S'335703'
p38
sassS'artist_id'
p39
I548314
sg5
I2277244
s.