(dp0
S'album'
p1
(dp2
S'name'
p3
S'Battle of the Sexes'
p4
sS'id'
p5
I5186
ssS'description_refs'
p6
(dp7
sS'artist'
p8
S'Ludacris'
p9
sS'title'
p10
S'My Chick Bad'
p11
sS'featured_artists'
p12
(lp13
(dp14
g5
I92
sg8
VNicki Minaj
p15
sasS'producers'
p16
(lp17
(dp18
g5
I27694
sg8
VThe Legendary Traxster
p19
sasS'references'
p20
(dp21
sS'artist_id'
p22
I111
sg5
I396
s.