(dp0
S'album'
p1
(dp2
S'name'
p3
S'Monster'
p4
sS'id'
p5
I113561
ssS'description_refs'
p6
(dp7
S'artist'
p8
(lp9
(dp10
g3
VWill-A-Fool
p11
sg5
S'27648'
p12
sassg8
S'Future'
p13
sS'title'
p14
S'My Savages'
p15
sS'producers'
p16
(lp17
(dp18
g5
I27648
sg8
VWill-A-Fool
p19
sasS'references'
p20
(dp21
g1
(lp22
(dp23
g3
V56 Nights 
p24
sg5
S'121868'
p25
sasS'other'
p26
(lp27
(dp28
g5
S'665714'
p29
sg14
VMr. Zone 6
p30
sasg8
(lp31
(dp32
g3
VFuture
p33
sg5
S'2197'
p34
sa(dp35
g3
VDJ Esco
p36
sg5
S'49470'
p37
sassS'artist_id'
p38
I2197
sg5
I558143
s.