(dp0
S'album'
p1
(dp2
S'album'
p3
S'Fetty Wap '
p4
sS'id'
p5
I129747
ssS'description_refs'
p6
(dp7
S'songs'
p8
(lp9
S'https://api.genius.com/songs/496445'
p10
assS'title'
p11
S'My Way'
p12
sS'artist'
p13
S'Fetty Wap'
p14
sS'featured_artists'
p15
(lp16
(dp17
S'id'
p18
I19635
sg13
VMonty
p19
sasS'producers'
p20
(lp21
(dp22
g18
I557945
sg13
VJayFrance
p23
sa(dp24
g18
I72396
sg13
VNick EBeats
p25
sasS'writers'
p26
(lp27
(dp28
g18
I211094
sg13
VRemy Boyz
p29
sasS'references'
p30
(dp31
g8
(lp32
S'https://api.genius.com/songs/496445'
p33
asS'artists'
p34
(lp35
S'https://api.genius.com/artists/7031'
p36
ass.