(dp0
S'album'
p1
(dp2
S'name'
p3
S'Fetty Wap '
p4
sS'id'
p5
I129747
ssS'description_refs'
p6
(dp7
S'song'
p8
(lp9
(dp10
S'artist'
p11
VFetty Wap
p12
sS'id'
p13
S'496445'
p14
sS'title'
p15
VTrap Queen
p16
sassS'artist'
p17
S'Fetty Wap'
p18
sS'title'
p19
S'My Way'
p20
sS'featured_artists'
p21
(lp22
(dp23
g5
I19635
sg17
VMonty
p24
sasS'producers'
p25
(lp26
(dp27
g5
I557945
sg17
VJayFrance
p28
sa(dp29
g5
I72396
sg17
VNick EBeats
p30
sasS'writers'
p31
(lp32
(dp33
g5
I211094
sg17
VRemy Boyz
p34
sasS'references'
p35
(dp36
S'song'
p37
(lp38
(dp39
S'title'
p40
VTrap Queen
p41
sS'id'
p42
S'496445'
p43
sS'artist'
p44
VFetty Wap
p45
sasg17
(lp46
(dp47
g3
VLuther Vandross
p48
sg5
S'7031'
p49
sassS'artist_id'
p50
I216609
sS'_id'
p51
ccopy_reg
_reconstructor
p52
(cbson.objectid
ObjectId
p53
c__builtin__
object
p54
Ntp55
Rp56
S'V\xef6\x85\x89WB\x13\x0b\xa2\x96\xf8'
p57
bsg5
I653082
s.