(dp0
S'album'
p1
(dp2
S'name'
p3
S'Rich Nigga Timeline'
p4
sS'id'
p5
I113969
ssS'description_refs'
p6
(dp7
sS'artist'
p8
S'Migos'
p9
sS'title'
p10
S'Nawfside'
p11
sS'producers'
p12
(lp13
(dp14
g5
I27822
sg8
VZaytoven
p15
sasS'references'
p16
(dp17
g1
(lp18
(dp19
g3
VAll Eyez on Me
p20
sg5
S'38'
p21
sasS'song_unannotated'
p22
(lp23
(dp24
g5
S'698'
p25
sa(dp26
g5
S'569516'
p27
sasg8
(lp28
(dp29
g3
VTakeoff
p30
sg5
S'148761'
p31
sa(dp32
g3
V2Pac
p33
sg5
S'59'
p34
sassS'artist_id'
p35
I44080
sg5
I569389
s.