(dp0
S'album'
p1
(dp2
S'name'
p3
S"This Unruly Mess I've Made"
p4
sS'id'
p5
I141904
ssS'description_refs'
p6
(dp7
sS'artist'
p8
S'Macklemore and Ryan Lewis'
p9
sS'title'
p10
S'Need to Know'
p11
sS'featured_artists'
p12
(lp13
(dp14
g5
I16751
sg8
VChance The Rapper
p15
sasS'producers'
p16
(lp17
(dp18
g5
I2025
sg8
VRyan Lewis
p19
sasS'writers'
p20
(lp21
(dp22
g5
I2026
sg8
VMacklemore
p23
sa(dp24
g5
I2025
sg8
VRyan Lewis
p25
sasS'references'
p26
(dp27
S'song_unannotated'
p28
(lp29
(dp30
g5
S'4753'
p31
sa(dp32
g5
S'696976'
p33
sa(dp34
g5
S'2413549'
p35
sa(dp36
g5
S'4753'
p37
sasg8
(lp38
(dp39
g3
VThe Weeknd
p40
sg5
S'2358'
p41
sa(dp42
g3
VFuture
p43
sg5
S'2197'
p44
sassS'artist_id'
p45
I2525
sg5
I2414874
s.