(dp0
S'album'
p1
(dp2
S'name'
p3
S'Always Strive and Prosper'
p4
sS'id'
p5
I140224
ssS'description_refs'
p6
(dp7
g1
(lp8
(dp9
g3
VDS2
p10
sg5
S'127543'
p11
sasS'song'
p12
(lp13
(dp14
S'title'
p15
VIce
p16
sS'id'
p17
S'525473'
p18
sS'artist'
p19
VJuicy J
p20
sa(dp21
g15
VThought It Was A Drought
p22
sg17
S'2213836'
p23
sg19
VFuture
p24
sasS'artist'
p25
(lp26
(dp27
g3
VFuture
p28
sg5
S'2197'
p29
sa(dp30
g3
VJuicy J
p31
sg5
S'1073'
p32
sassg25
S'A$AP Ferg'
p33
sS'title'
p34
S'New Level'
p35
sS'featured_artists'
p36
(lp37
(dp38
g5
I2197
sg25
VFuture
p39
sasS'producers'
p40
(lp41
(dp42
g5
I34340
sg25
VDa Honorable C.N.O.T.E.
p43
sasS'references'
p44
(dp45
S'song_unannotated'
p46
(lp47
(dp48
S'id'
p49
S'151327'
p50
sa(dp51
g49
S'693724'
p52
sasg25
(lp53
(dp54
g3
VG-Eazy
p55
sg5
S'11395'
p56
sasS'song'
p57
(lp58
(dp59
S'artist'
p60
VG-Eazy
p61
sg49
S'415574'
p62
sS'title'
p63
VLotta That
p64
sa(dp65
g60
VLil Wayne
p66
sg49
S'28749'
p67
sg63
VTha Block is Hot
p68
sassS'artist_id'
p69
I15369
sg5
I2392485
s.