(dp0
S'album'
p1
(dp2
S'name'
p3
S'Badlands'
p4
sS'id'
p5
I125090
ssS'description_refs'
p6
(dp7
S'artist'
p8
(lp9
(dp10
g3
VHalsey
p11
sg5
S'228636'
p12
sassg8
S'Halsey'
p13
sS'title'
p14
S'New Americana'
p15
sS'producers'
p16
(lp17
(dp18
g5
I20576
sg8
VLido
p19
sasS'writers'
p20
(lp21
(dp22
g5
I577879
sg8
VKalkutta
p23
sa(dp24
g5
I431037
sg8
VJames Mtume
p25
sa(dp26
g5
I577878
sg8
VLazz Principato
p27
sasS'references'
p28
(dp29
S'song_unannotated'
p30
(lp31
(dp32
g5
S'152813'
p33
sa(dp34
g5
S'43'
p35
sasS'other'
p36
(lp37
(dp38
g5
S'43'
p39
sg14
VJuicy
p40
sasg8
(lp41
(dp42
g3
VMtume
p43
sg5
S'50779'
p44
sa(dp45
g3
VThe Notorious B.I.G.
p46
sg5
S'22'
p47
sa(dp48
g3
VThe Notorious B.I.G.
p49
sg5
S'22'
p50
sa(dp51
g3
VNirvana
p52
sg5
S'12712'
p53
sassS'artist_id'
p54
I228636
sg5
I733666
s.