(dp0
S'description_refs'
p1
(dp2
sS'artist'
p3
S'Waka Flocka Flame'
p4
sS'title'
p5
S'No Hands [feat. Roscoe Dash and Wale] - Amended'
p6
sS'references'
p7
(dp8
sS'artist_id'
p9
I257
sS'id'
p10
I1980001
s.