(dp0
S'album'
p1
(dp2
S'name'
p3
S'All American'
p4
sS'id'
p5
I15882
ssS'description_refs'
p6
(dp7
sS'artist'
p8
S'Hoodie Allen'
p9
sS'title'
p10
S'No Interruption'
p11
sS'references'
p12
(dp13
sS'artist_id'
p14
I2057
sg5
I69732
s.