(dp0
S'album'
p1
(dp2
S'name'
p3
S'Thank You'
p4
sS'id'
p5
I143361
ssS'description_refs'
p6
(dp7
S'song_unannotated'
p8
(lp9
(dp10
g5
S'471152'
p11
sasS'artist'
p12
(lp13
(dp14
g3
VMeghan Trainor
p15
sg5
S'201194'
p16
sa(dp17
g3
VRicky Reed
p18
sg5
S'62236'
p19
sa(dp20
g3
VWallpaper.
p21
sg5
S'12395'
p22
sassg12
S'Meghan Trainor'
p23
sS'title'
p24
S'No'
p25
sS'producers'
p26
(lp27
(dp28
g5
I12395
sg12
VWallpaper.
p29
sasS'writers'
p30
(lp31
(dp32
g5
I285817
sg12
VJacob Kasher
p33
sasS'references'
p34
(dp35
sS'artist_id'
p36
I201194
sg5
I2416274
s.