(dp0
S'album'
p1
(dp2
S'name'
p3
S'Suffering From Success'
p4
sS'id'
p5
I31909
ssS'description_refs'
p6
(dp7
sS'artist'
p8
S'DJ Khaled'
p9
sS'title'
p10
S'No New Friends'
p11
sS'featured_artists'
p12
(lp13
(dp14
g5
I88
sg8
VRick Ross
p15
sa(dp16
g5
I130
sg8
VDrake
p17
sa(dp18
g5
I4
sg8
VLil Wayne
p19
sasS'producers'
p20
(lp21
(dp22
g5
I27616
sg8
VVinylz
p23
sa(dp24
g5
I27612
sg8
VNoah \u201c40\u201d Shebib
p25
sa(dp26
g5
I662
sg8
VBoi-1da
p27
sasS'references'
p28
(dp29
g1
(lp30
(dp31
g3
VRoom for Improvement
p32
sg5
S'2625'
p33
sa(dp34
g3
VSo Far Gone
p35
sg5
S'2627'
p36
sa(dp37
g3
VSo Far Gone
p38
sg5
S'2627'
p39
sasS'song_unannotated'
p40
(lp41
(dp42
g5
S'81853'
p43
sa(dp44
g5
S'105686'
p45
sa(dp46
g5
S'151'
p47
sasg8
(lp48
(dp49
g3
VDrake
p50
sg5
S'130'
p51
sa(dp52
g3
VFuture
p53
sg5
S'2197'
p54
sa(dp55
g3
VLil Wayne
p56
sg5
S'4'
p57
sa(dp58
g3
VThe Weeknd
p59
sg5
S'2358'
p60
sa(dp61
g3
VA$AP Rocky
p62
sg5
S'12417'
p63
sa(dp64
g3
VKendrick Lamar
p65
sg5
S'1421'
p66
sa(dp67
g3
VKendrick Lamar
p68
sg5
S'1421'
p69
sa(dp70
g3
VPimp C
p71
sg5
S'2444'
p72
sa(dp73
g3
VC-Murder
p74
sg5
S'3526'
p75
sassS'artist_id'
p76
I158
sg5
I140752
s.