(dp0
S'album'
p1
(dp2
S'name'
p3
S'nostalgia, ULTRA.'
p4
sS'id'
p5
I10780
ssS'description_refs'
p6
(dp7
sS'artist'
p8
S'Frank Ocean'
p9
sS'title'
p10
S'Novacane'
p11
sS'producers'
p12
(lp13
(dp14
g5
I27603
sg8
VTricky Stewart
p15
sasS'references'
p16
(dp17
sS'artist_id'
p18
I1985
sg5
I4849
s.