(dp0
S'album'
p1
(dp2
S'name'
p3
S'Raised by the People'
p4
sS'id'
p5
I68062
ssS'description_refs'
p6
(dp7
sS'artist'
p8
S'Notch'
p9
sS'title'
p10
S'Nuttin No Go So'
p11
sS'references'
p12
(dp13
sS'artist_id'
p14
I9972
sg5
I101184
s.