(dp0
S'album'
p1
(dp2
S'name'
p3
S'Beauty Behind the Madness'
p4
sS'id'
p5
I127525
ssS'description_refs'
p6
(dp7
g1
(lp8
(dp9
g3
VBeauty Behind the Madness
p10
sg5
S'127525'
p11
sasS'song_unannotated'
p12
(lp13
(dp14
g5
S'366931'
p15
sa(dp16
g5
S'363498'
p17
sassS'artist'
p18
S'The Weeknd'
p19
sS'title'
p20
S'Often'
p21
sS'producers'
p22
(lp23
(dp24
g5
I574528
sg18
VDaHeala
p25
sa(dp26
g5
I34533
sg18
VBen Billions
p27
sasS'writers'
p28
(lp29
(dp30
g5
I641338
sg18
VOsman Ismen
p31
sa(dp32
g5
I641337
sg18
VSabahattin Ali
p33
sa(dp34
g5
I641336
sg18
VAli Kocatepe
p35
sa(dp36
g5
I589075
sg18
VDanny SchofIeld
p37
sa(dp38
g5
I579906
sg18
VAhmad Balshe
p39
sa(dp40
g5
I574528
sg18
VDaHeala
p41
sa(dp42
g5
I641335
sg18
VBen Diehl
p43
sasS'references'
p44
(dp45
g12
(lp46
(dp47
g5
S'6169'
p48
sa(dp49
g5
S'56953'
p50
sa(dp51
g5
S'152385'
p52
sa(dp53
g5
S'56953'
p54
sa(dp55
g5
S'299177'
p56
sa(dp57
g5
S'363498'
p58
sa(dp59
g5
S'94470'
p60
sa(dp61
g5
S'56953'
p62
sasS'other'
p63
(lp64
(dp65
g5
S'6169'
p66
sg20
VThe Morning
p67
sasg18
(lp68
(dp69
g3
VKendrick Lamar
p70
sg5
S'1421'
p71
sassS'artist_id'
p72
I2358
sg5
I460183
s.