(dp0
S'album'
p1
(dp2
S'name'
p3
S'Vallis Alps'
p4
sS'id'
p5
I117943
ssS'description_refs'
p6
(dp7
sS'artist'
p8
S'Vallis Alps'
p9
sS'title'
p10
S'Oh!'
p11
sS'references'
p12
(dp13
sS'artist_id'
p14
I309162
sg5
I672155
s.