(dp0
S'album'
p1
(dp2
S'name'
p3
S'Rodeo'
p4
sS'id'
p5
I118695
ssS'description_refs'
p6
(dp7
S'artist'
p8
(lp9
(dp10
g3
VMigos
p11
sg5
S'44080'
p12
sassg8
S'Travis Scott'
p13
sS'title'
p14
S'Oh My Dis Side'
p15
sS'featured_artists'
p16
(lp17
(dp18
g5
I61600
sg8
VQuavo
p19
sasS'producers'
p20
(lp21
(dp22
g5
I7161
sg8
VMike Dean
p23
sa(dp24
g5
I28169
sg8
VFrank Dukes
p25
sa(dp26
g5
I55684
sg8
VAllen Ritter
p27
sasS'writers'
p28
(lp29
(dp30
g5
I61600
sg8
VQuavo
p31
sasS'references'
p32
(dp33
S'song'
p34
(lp35
(dp36
g8
VTravis Scott
p37
sg5
S'499870'
p38
sg14
VDrugs You Should Try It
p39
sasg8
(lp40
(dp41
g3
VQuavo
p42
sg5
S'61600'
p43
sassS'artist_id'
p44
I20185
sg5
I2290819
s.