(dp0
S'album'
p1
(dp2
S'name'
p3
S'Delirium'
p4
sS'id'
p5
I131217
ssS'description_refs'
p6
(dp7
g1
(lp8
(dp9
g3
VDelirium
p10
sg5
S'131217'
p11
sassS'artist'
p12
S'Ellie Goulding'
p13
sS'title'
p14
S'On My Mind'
p15
sS'producers'
p16
(lp17
(dp18
g5
I27835
sg12
VMax Martin
p19
sasS'writers'
p20
(lp21
(dp22
g5
I302825
sg12
VIlya Salmanzadeh
p23
sa(dp24
g5
I179206
sg12
VSavan Kotecha
p25
sa(dp26
g5
I27835
sg12
VMax Martin
p27
sasS'references'
p28
(dp29
S'song_unannotated'
p30
(lp31
(dp32
g5
S'96303'
p33
sa(dp34
g5
S'121287'
p35
sa(dp36
g5
S'402440'
p37
sa(dp38
g5
S'570363'
p39
sasg12
(lp40
(dp41
g3
VAndy Summers
p42
sg5
S'54960'
p43
sa(dp44
g3
VEd Sheeran
p45
sg5
S'12418'
p46
sa(dp47
g3
VTaylor Swift
p48
sg5
S'1177'
p49
sa(dp50
g3
VCalvin Harris
p51
sg5
S'2069'
p52
sasS'song'
p53
(lp54
(dp55
g12
VEd Sheeran
p56
sg5
S'403031'
p57
sg14
VDon't
p58
sa(dp59
g12
VEd Sheeran
p60
sg5
S'403031'
p61
sg14
VDon't
p62
sassS'artist_id'
p63
I1838
sg5
I2308425
s.