(dp0
S'album'
p1
(dp2
S'name'
p3
S'Welcome To JFK'
p4
sS'id'
p5
I125510
ssS'description_refs'
p6
(dp7
sS'artist'
p8
S'Chinx'
p9
sS'title'
p10
S'On Your Body'
p11
sS'featured_artists'
p12
(lp13
(dp14
g5
I127147
sg8
VMeetSims
p15
sasS'producers'
p16
(lp17
(dp18
g5
I407925
sg8
VBkorn
p19
sa(dp20
g5
I34529
sg8
VLee On The Beats
p21
sasS'references'
p22
(dp23
sS'artist_id'
p24
I16424
sg5
I2018804
s.