(dp0
S'album'
p1
(dp2
S'name'
p3
S'Illmatic'
p4
sS'id'
p5
I7013
ssS'description_refs'
p6
(dp7
sS'artist'
p8
S'Nas'
p9
sS'title'
p10
S'One Love'
p11
sS'producers'
p12
(lp13
(dp14
g5
I267
sg8
VQ-Tip
p15
sasS'references'
p16
(dp17
S'song_unannotated'
p18
(lp19
(dp20
g5
S'47702'
p21
sa(dp22
g5
S'704'
p23
sa(dp24
g5
S'68291'
p25
sasg8
(lp26
(dp27
g3
VWhodini
p28
sg5
S'2438'
p29
sassS'artist_id'
p30
I56
sg5
I454
s.