(dp0
S'album'
p1
(dp2
S'name'
p3
S'Jackpot'
p4
sS'id'
p5
I1518
ssS'description_refs'
p6
(dp7
sS'artist'
p8
S'Chingy'
p9
sS'title'
p10
S'One Call Away'
p11
sS'featured_artists'
p12
(lp13
(dp14
g5
I1890
sg8
VJ-Weav
p15
sasS'producers'
p16
(lp17
(dp18
g5
I34333
sg8
VTrak Starz
p19
sasS'references'
p20
(dp21
S'song_unannotated'
p22
(lp23
(dp24
g5
S'2276633'
p25
sa(dp26
g5
S'2376081'
p27
sasS'song'
p28
(lp29
(dp30
g8
VDrake
p31
sg5
S'2263723'
p32
sg10
VHotline Bling
p33
sassS'artist_id'
p34
I645
sg5
I4381
s.