(dp0
S'album'
p1
(dp2
S'name'
p3
S'The Pinkprint'
p4
sS'id'
p5
I97218
ssS'description_refs'
p6
(dp7
S'song_unannotated'
p8
(lp9
(dp10
g5
S'261'
p11
sa(dp12
g5
S'566592'
p13
sassS'artist'
p14
S'Nicki Minaj'
p15
sS'title'
p16
S'Only'
p17
sS'featured_artists'
p18
(lp19
(dp20
g5
I4
sg14
VLil Wayne
p21
sa(dp22
g5
I130
sg14
VDrake
p23
sa(dp24
g5
I438
sg14
VChris Brown
p25
sasS'producers'
p26
(lp27
(dp28
g5
I544871
sg14
VR. City
p29
sa(dp30
g5
I285818
sg14
VHBM
p31
sa(dp32
g5
I30425
sg14
VCirkut
p33
sa(dp34
g5
I43538
sg14
VJMIKE
p35
sa(dp36
g5
I27804
sg14
VDr. Luke
p37
sasS'writers'
p38
(lp39
(dp40
g5
I438
sg14
VChris Brown
p41
sa(dp42
g5
I130
sg14
VDrake
p43
sa(dp44
g5
I4
sg14
VLil Wayne
p45
sa(dp46
g5
I500824
sg14
VTheron Thomas
p47
sasS'references'
p48
(dp49
g14
(lp50
(dp51
g3
VIggy Azalea
p52
sg5
S'14598'
p53
sassS'artist_id'
p54
I92
sg5
I555359
s.