(dp0
S'album'
p1
(dp2
S'name'
p3
S'Woman'
p4
sS'id'
p5
I30569
ssS'description_refs'
p6
(dp7
sS'artist'
p8
S'Rhye'
p9
sS'title'
p10
S'Open'
p11
sS'references'
p12
(dp13
sS'artist_id'
p14
I27994
sg5
I123873
s.