(dp0
S'album'
p1
(dp2
S'name'
p3
S"When It's Dark Out"
p4
sS'id'
p5
I133170
ssS'description_refs'
p6
(dp7
S'song_unannotated'
p8
(lp9
(dp10
g5
S'2159541'
p11
sa(dp12
g5
S'2329765'
p13
sa(dp14
g5
S'2293108'
p15
sasS'artist'
p16
(lp17
(dp18
g3
VStarrah
p19
sg5
S'162702'
p20
sassg16
S'G-Eazy'
p21
sS'title'
p22
S'Order More'
p23
sS'featured_artists'
p24
(lp25
(dp26
g5
I162702
sg16
VStarrah
p27
sasS'producers'
p28
(lp29
(dp30
g5
I27511
sg16
VDJ Spinz
p31
sasS'writers'
p32
(lp33
(dp34
g5
I27511
sg16
VDJ Spinz
p35
sa(dp36
g5
I162702
sg16
VStarrah
p37
sasS'references'
p38
(dp39
g8
(lp40
(dp41
g5
S'2159541'
p42
sa(dp43
g5
S'88378'
p44
sa(dp45
g5
S'88378'
p46
sasS'other'
p47
(lp48
(dp49
g5
S'2329765'
p50
sg22
VMe, Myself & I
p51
sassS'artist_id'
p52
I11395
sg5
I2339761
s.