(dp0
S'album'
p1
(dp2
S'name'
p3
S'Late Nights'
p4
sS'id'
p5
I112264
ssS'description_refs'
p6
(dp7
sS'artist'
p8
S'Jeremih'
p9
sS'title'
p10
S'Oui'
p11
sS'producers'
p12
(lp13
(dp14
g5
I58613
sg8
VDonut
p15
sa(dp16
g5
I21716
sg8
VNeedlz
p17
sasS'writers'
p18
(lp19
(dp20
g5
I557925
sg8
VCarl "Groove" Martin
p21
sa(dp22
g5
I58613
sg8
VDonut
p23
sa(dp24
g5
I21716
sg8
VNeedlz
p25
sasS'references'
p26
(dp27
S'song_unannotated'
p28
(lp29
(dp30
g5
S'196894'
p31
sasS'other'
p32
(lp33
(dp34
g5
S'109287'
p35
sg10
VSuit & Tie
p36
sasg8
(lp37
(dp38
g3
VJustin Timberlake
p39
sg5
S'334'
p40
sasS'song'
p41
(lp42
(dp43
g8
VJeremih
p44
sg5
S'2443'
p45
sg10
VBirthday Sex
p46
sassS'artist_id'
p47
I278
sg5
I2342690
s.