(dp0
S'description_refs'
p1
(dp2
sS'artist'
p3
S'Sonny Alven'
p4
sS'title'
p5
S'Our Youth'
p6
sS'featured_artists'
p7
(lp8
(dp9
S'id'
p10
I363073
sg3
VEmmi
p11
sasS'references'
p12
(dp13
sS'artist_id'
p14
I526452
sg10
I2324269
s.