(dp0
S'description_refs'
p1
(dp2
S'song_unannotated'
p3
(lp4
(dp5
S'id'
p6
S'2322003'
p7
sa(dp8
g6
S'2322014'
p9
sa(dp10
g6
S'2322004'
p11
sa(dp12
g6
S'2322010'
p13
sa(dp14
g6
S'2322009'
p15
sa(dp16
g6
S'2322020'
p17
sasS'song'
p18
(lp19
(dp20
S'artist'
p21
VPARTYNEXTDOOR
p22
sg6
S'2322011'
p23
sS'title'
p24
VWait For You
p25
sasg21
(lp26
(dp27
S'name'
p28
VTy Dolla $ign
p29
sg6
S'25005'
p30
sa(dp31
g28
VRich The Kid
p32
sg6
S'65109'
p33
sassg21
S'PARTYNEXTDOOR'
p34
sg24
S'OVO Freestyle'
p35
sS'references'
p36
(dp37
S'album'
p38
(lp39
(dp40
g28
VPARTYNEXTDOOR TWO
p41
sg6
S'108179'
p42
sa(dp43
g28
VPNDCOLOURS
p44
sg6
S'115982'
p45
sasg21
(lp46
(dp47
g28
VDrake
p48
sg6
S'130'
p49
sa(dp50
g28
VDrake
p51
sg6
S'130'
p52
sassS'artist_id'
p53
I47131
sg6
I2322001
s.