(dp0
S'album'
p1
(dp2
S'name'
p3
S'OVO Sound Radio Tracklists'
p4
sS'id'
p5
I128797
ssS'description_refs'
p6
(dp7
g1
(lp8
(dp9
g3
VViews From The 6
p10
sg5
S'132506'
p11
sasS'song_unannotated'
p12
(lp13
(dp14
g5
S'2415289'
p15
sassS'artist'
p16
S'Drake'
p17
sS'title'
p18
S'OVO Sound Radio Episode 14 Tracklist'
p19
sS'references'
p20
(dp21
sS'artist_id'
p22
I130
sg5
I2413886
s.