(dp0
S'album'
p1
(dp2
S'name'
p3
S'OVO Sound Radio Tracklists'
p4
sS'id'
p5
I128797
ssS'description_refs'
p6
(dp7
g1
(lp8
(dp9
g3
VEVOL
p10
sg5
S'143267'
p11
sa(dp12
g3
VThe Life of Pablo
p13
sg5
S'120604'
p14
sasS'song_unannotated'
p15
(lp16
(dp17
g5
S'2400811'
p18
sasS'artist'
p19
(lp20
(dp21
g3
VDesiigner
p22
sg5
S'626678'
p23
sa(dp24
g3
VShy Glizzy
p25
sg5
S'19139'
p26
sassg19
S'Drake'
p27
sS'title'
p28
S'OVO Sound Radio Episode 15 Tracklist'
p29
sS'references'
p30
(dp31
sS'artist_id'
p32
I130
sg5
I2422513
s.