(dp0
S'album'
p1
(dp2
S'name'
p3
S"Get Rich or Die Tryin'"
p4
sS'id'
p5
I141
ssS'description_refs'
p6
(dp7
S'song_unannotated'
p8
(lp9
(dp10
g5
S'7091'
p11
sassS'artist'
p12
S'50 Cent'
p13
sS'title'
p14
S'P.I.M.P.'
p15
sS'producers'
p16
(lp17
(dp18
g5
I509
sg12
VMr. Porter
p19
sasS'references'
p20
(dp21
g1
(lp22
(dp23
g3
VGet Rich or Die Tryin'
p24
sg5
S'141'
p25
sasg8
(lp26
(dp27
g5
S'1043'
p28
sassS'artist_id'
p29
I108
sg5
I634
s.