(dp0
S'album'
p1
(dp2
S'name'
p3
S'Kala'
p4
sS'id'
p5
I5687
ssS'description_refs'
p6
(dp7
S'song_unannotated'
p8
(lp9
(dp10
g5
S'76483'
p11
sassS'artist'
p12
S'M.I.A.'
p13
sS'title'
p14
S'Paper Planes'
p15
sS'producers'
p16
(lp17
(dp18
g5
I12908
sg12
VDiplo
p19
sasS'references'
p20
(dp21
sS'artist_id'
p22
I1042
sg5
I2171
s.