(dp0
S'album'
p1
(dp2
S'name'
p3
S'Dark Sky Paradise'
p4
sS'id'
p5
I118666
ssS'description_refs'
p6
(dp7
g1
(lp8
(dp9
g3
VRansom
p10
sg5
S'109774'
p11
sasS'artist'
p12
(lp13
(dp14
g3
VJay Z
p15
sg5
S'2'
p16
sassg12
S'Big Sean'
p17
sS'title'
p18
S'Paradise'
p19
sS'producers'
p20
(lp21
(dp22
g5
I29978
sg12
VMike WiLL Made It
p23
sasS'references'
p24
(dp25
S'song_unannotated'
p26
(lp27
(dp28
g5
S'1322'
p29
sasg12
(lp30
(dp31
g3
VJustin Bieber
p32
sg5
S'357'
p33
sassS'artist_id'
p34
I492
sg5
I517621
s.