(dp0
S'album'
p1
(dp2
S'name'
p3
S'Late Nights'
p4
sS'id'
p5
I112264
ssS'description_refs'
p6
(dp7
g1
(lp8
(dp9
g3
VLate Nights
p10
sg5
S'112264'
p11
sasS'song_unannotated'
p12
(lp13
(dp14
g5
S'2396309'
p15
sasS'artist'
p16
(lp17
(dp18
g3
VStarrah
p19
sg5
S'162702'
p20
sa(dp21
g3
VThe Weeknd
p22
sg5
S'2358'
p23
sassS'title'
p24
S'Pass Dat'
p25
sg16
S'Jeremih'
p26
sS'featured_artists'
p27
(lp28
(dp29
g5
I162702
sg16
VStarrah
p30
sasS'producers'
p31
(lp32
(dp33
g5
I647765
sg16
VRetro Future
p34
sasS'references'
p35
(dp36
S'song'
p37
(lp38
(dp39
S'title'
p40
VI Hit It First
p41
sS'id'
p42
S'136893'
p43
sS'artist'
p44
VRay J
p45
sasg16
(lp46
(dp47
g3
VMethod Man
p48
sg5
S'228'
p49
sa(dp50
g3
VRedman
p51
sg5
S'229'
p52
sassS'artist_id'
p53
I278
sg5
I2375319
s.