(dp0
S'description_refs'
p1
(dp2
S'artist'
p3
(lp4
(dp5
S'name'
p6
VJeremih
p7
sS'id'
p8
S'278'
p9
sa(dp10
g6
VFuture
p11
sg8
S'2197'
p12
sasS'song'
p13
(lp14
(dp15
g3
VJeremih
p16
sg8
S'2375319'
p17
sS'title'
p18
VPass Dat
p19
sassg3
S'The Weeknd'
p20
sg18
S'Pass Dat (Remix)'
p21
sS'featured_artists'
p22
(lp23
(dp24
g8
I162702
sg3
VStarrah
p25
sa(dp26
g8
I278
sg3
VJeremih
p27
sasS'producers'
p28
(lp29
(dp30
g8
I2992
sg3
VO.C.
p31
sasS'references'
p32
(dp33
sS'artist_id'
p34
I2358
sg8
I2396309
s.