(dp0
S'description_refs'
p1
(dp2
sS'title'
p3
S'Phantogram (Freestyle)'
p4
sS'artist'
p5
S'A$AP Rocky'
p6
sS'references'
p7
(dp8
S'song'
p9
(lp10
(dp11
S'title'
p12
VWonderwall
p13
sS'id'
p14
S'76654'
p15
sS'artist'
p16
VOasis
p17
sassS'artist_id'
p18
I12417
sS'id'
p19
I2432858
s.