(dp0
S'album'
p1
(dp2
S'name'
p3
S'Adventure'
p4
sS'id'
p5
I116236
ssS'description_refs'
p6
(dp7
sS'artist'
p8
S'Madeon'
p9
sS'title'
p10
S'Pixel Empire'
p11
sS'references'
p12
(dp13
sS'artist_id'
p14
I66891
sg5
I741241
s.