(dp0
S'album'
p1
(dp2
S'name'
p3
S'Late Nights'
p4
sS'id'
p5
I112264
ssS'description_refs'
p6
(dp7
S'song_unannotated'
p8
(lp9
(dp10
g5
S'387335'
p11
sasS'artist'
p12
(lp13
(dp14
g3
VJ. Cole
p15
sg5
S'69'
p16
sa(dp17
g3
VVinylz
p18
sg5
S'27616'
p19
sa(dp20
g3
VJ. Cole
p21
sg5
S'69'
p22
sassg12
S'Jeremih'
p23
sS'title'
p24
S'Planez'
p25
sS'featured_artists'
p26
(lp27
(dp28
g5
I69
sg12
VJ. Cole
p29
sasS'producers'
p30
(lp31
(dp32
g5
I28169
sg12
VFrank Dukes
p33
sa(dp34
g5
I27616
sg12
VVinylz
p35
sasS'writers'
p36
(lp37
(dp38
g5
I573788
sg12
VKia Jeffries
p39
sa(dp40
g5
I69
sg12
VJ. Cole
p41
sasS'references'
p42
(dp43
g1
(lp44
(dp45
g3
V2014 Forest Hills Drive
p46
sg5
S'115138'
p47
sasg8
(lp48
(dp49
g5
S'1043'
p50
sasS'other'
p51
(lp52
(dp53
g5
S'46515'
p54
sg24
VIt Feels So Good
p55
sassS'artist_id'
p56
I278
sg5
I521525
s.