(dp0
S'album'
p1
(dp2
S'name'
p3
S'Must Be Nice'
p4
sS'id'
p5
I19562
ssS'description_refs'
p6
(dp7
sS'artist'
p8
S'G-Eazy'
p9
sS'title'
p10
S'Plastic Dreams'
p11
sS'featured_artists'
p12
(lp13
(dp14
g5
I23037
sg8
VJohanna Fay
p15
sasS'references'
p16
(dp17
S'song_unannotated'
p18
(lp19
(dp20
g5
S'345788'
p21
sa(dp22
g5
S'345788'
p23
sassS'artist_id'
p24
I11395
sg5
I82701
s.