(dp0
S'album'
p1
(dp2
S'name'
p3
S'Joyride'
p4
sS'id'
p5
I130069
ssS'description_refs'
p6
(dp7
S'artist'
p8
(lp9
(dp10
g3
VTinashe
p11
sg5
S'25561'
p12
sa(dp13
g3
VChris Brown
p14
sg5
S'438'
p15
sa(dp16
g3
VMax Martin
p17
sg5
S'27835'
p18
sassg8
S'Tinashe'
p19
sS'title'
p20
S'Player'
p21
sS'featured_artists'
p22
(lp23
(dp24
g5
I438
sg8
VChris Brown
p25
sasS'producers'
p26
(lp27
(dp28
g5
I27835
sg8
VMax Martin
p29
sasS'references'
p30
(dp31
g8
(lp32
(dp33
g3
VBritney Spears
p34
sg5
S'1052'
p35
sassS'artist_id'
p36
I25561
sg5
I2295400
s.