(dp0
S'album'
p1
(dp2
S'name'
p3
S'Ginuwine...the Bachelor'
p4
sS'id'
p5
I6004
ssS'description_refs'
p6
(dp7
S'song_unannotated'
p8
(lp9
(dp10
g5
S'234441'
p11
sasS'artist'
p12
(lp13
(dp14
g3
VTimbaland
p15
sg5
S'112'
p16
sa(dp17
g3
VBrandy
p18
sg5
S'1425'
p19
sa(dp20
g3
VJustin Timberlake
p21
sg5
S'334'
p22
sassg12
S'Ginuwine'
p23
sS'title'
p24
S'Pony'
p25
sS'producers'
p26
(lp27
(dp28
g5
I112
sg12
VTimbaland
p29
sasS'references'
p30
(dp31
sS'artist_id'
p32
I816
sg5
I1612
s.