(dp0
S'description_refs'
p1
(dp2
sS'artist'
p3
S'Alan Z and DJ Xross'
p4
sS'title'
p5
S'Post To Be (Omarion, Chris Brown, and Jhene Aiko Remix)'
p6
sS'references'
p7
(dp8
sS'artist_id'
p9
I273145
sS'id'
p10
I607906
s.