(dp0
S'album'
p1
(dp2
S'name'
p3
S'For the Town'
p4
sS'id'
p5
I123919
ssS'description_refs'
p6
(dp7
sS'artist'
p8
S'SonReal'
p9
sS'title'
p10
S'Preach'
p11
sS'producers'
p12
(lp13
(dp14
g5
I4698
sg8
VPops
p15
sasS'references'
p16
(dp17
sS'artist_id'
p18
I13368
sg5
I578626
s.