(dp0
S'album'
p1
(dp2
S'name'
p3
S'Hoodstar'
p4
sS'id'
p5
I1516
ssS'description_refs'
p6
(dp7
sS'artist'
p8
S'Chingy'
p9
sS'title'
p10
S"Pullin' Me Back"
p11
sS'featured_artists'
p12
(lp13
(dp14
g5
I2651
sg8
VTyrese
p15
sasS'producers'
p16
(lp17
(dp18
g5
I3264
sg8
VJermaine Dupri
p19
sasS'references'
p20
(dp21
sS'artist_id'
p22
I645
sg5
I13648
s.