(dp0
S'album'
p1
(dp2
S'name'
p3
S'56 Nights '
p4
sS'id'
p5
I121868
ssS'description_refs'
p6
(dp7
S'song_unannotated'
p8
(lp9
(dp10
g5
S'559442'
p11
sassS'artist'
p12
S'Future'
p13
sS'title'
p14
S'Purple Coming In'
p15
sS'producers'
p16
(lp17
(dp18
g5
I23315
sg12
VSouthside
p19
sasS'references'
p20
(dp21
g1
(lp22
(dp23
g3
VDirty Sprite
p24
sg5
S'12192'
p25
sasg8
(lp26
(dp27
g5
S'726052'
p28
sasg12
(lp29
(dp30
g3
VFuture
p31
sg5
S'2197'
p32
sa(dp33
g3
VSpaceGhostPurrp
p34
sg5
S'12229'
p35
sassS'artist_id'
p36
I2197
sg5
I728784
s.