(dp0
S'album'
p1
(dp2
S'name'
p3
S'The 20/20 Experience'
p4
sS'id'
p5
I26801
ssS'description_refs'
p6
(dp7
sS'artist'
p8
S'Justin Timberlake'
p9
sS'title'
p10
S'Pusher Love Girl'
p11
sS'producers'
p12
(lp13
(dp14
g5
I21903
sg8
VJ-Roc
p15
sa(dp16
g5
I112
sg8
VTimbaland
p17
sasS'references'
p18
(dp19
S'song_unannotated'
p20
(lp21
(dp22
g5
S'26036'
p23
sassS'artist_id'
p24
I334
sg5
I114429
s.