(dp0
S'album'
p1
(dp2
S'name'
p3
S'A Salt With a Deadly Pepa'
p4
sS'id'
p5
I8991
ssS'description_refs'
p6
(dp7
sS'artist'
p8
S'Salt-N-Pepa'
p9
sS'title'
p10
S'Push It'
p11
sS'references'
p12
(dp13
S'song_unannotated'
p14
(lp15
(dp16
g5
S'421411'
p17
sa(dp18
g5
S'76192'
p19
sassS'artist_id'
p20
I1554
sg5
I56902
s.