(dp0
S'album'
p1
(dp2
S'name'
p3
S"Queen's Speech EP"
p4
sS'id'
p5
I140209
ssS'description_refs'
p6
(dp7
S'song_unannotated'
p8
(lp9
(dp10
g5
S'719808'
p11
sa(dp12
g5
S'715838'
p13
sa(dp14
g5
S'1783001'
p15
sassS'artist'
p16
S'Lady Leshurr'
p17
sS'title'
p18
S"Queen's Speech 4"
p19
sS'producers'
p20
(lp21
(dp22
g5
I437232
sg16
VKrunchie
p23
sa(dp24
g5
I37818
sg16
VZdot
p25
sasS'references'
p26
(dp27
g16
(lp28
(dp29
g3
VIce Cube
p30
sg5
S'186'
p31
sassS'artist_id'
p32
I14313
sg5
I2270213
s.