(dp0
S'album'
p1
(dp2
S'name'
p3
S'Dreams Worth More than Money'
p4
sS'id'
p5
I87848
ssS'description_refs'
p6
(dp7
g1
(lp8
(dp9
g3
VDreams and Nightmares
p10
sg5
S'21617'
p11
sasS'song_unannotated'
p12
(lp13
(dp14
g5
S'2266961'
p15
sasS'other'
p16
(lp17
(dp18
g5
S'2263716'
p19
sS'title'
p20
VCharged Up
p21
sasS'artist'
p22
(lp23
(dp24
g3
VDrake
p25
sg5
S'130'
p26
sa(dp27
g3
VVinylz
p28
sg5
S'27616'
p29
sasS'song'
p30
(lp31
(dp32
g22
VMeek Mill
p33
sg5
S'73301'
p34
sg20
VAmen
p35
sassg22
S'Meek Mill'
p36
sg20
S'R.I.C.O.'
p37
sS'featured_artists'
p38
(lp39
(dp40
g5
I130
sg22
VDrake
p41
sasS'producers'
p42
(lp43
(dp44
g5
I32429
sg22
VCubeatz
p45
sa(dp46
g5
I27616
sg22
VVinylz
p47
sasS'writers'
p48
(lp49
(dp50
g5
I27616
sg22
VVinylz
p51
sa(dp52
g5
I32429
sg22
VCubeatz
p53
sa(dp54
g5
I130
sg22
VDrake
p55
sasS'references'
p56
(dp57
g12
(lp58
(dp59
g5
S'2268524'
p60
sa(dp61
g5
S'74175'
p62
sa(dp63
g5
S'53388'
p64
sa(dp65
g5
S'50895'
p66
sa(dp67
g5
S'217268'
p68
sasg22
(lp69
(dp70
g3
VCam'ron
p71
sg5
S'1'
p72
sassS'artist_id'
p73
I1319
sg5
I2024226
s.