(dp0
S'album'
p1
(dp2
S'name'
p3
S"Ain't No Mixtape Bih 2"
p4
sS'id'
p5
I141235
ssS'description_refs'
p6
(dp7
sS'artist'
p8
S'Plies'
p9
sS'title'
p10
S'Ran Off On Da Plug Twice (Ritz Carlton)'
p11
sS'producers'
p12
(lp13
(dp14
g5
I200895
sg8
VDTSpacely
p15
sasS'references'
p16
(dp17
sS'artist_id'
p18
I272
sg5
I2379715
s.