(dp0
S'album'
p1
(dp2
S'name'
p3
S'These Things Take Time'
p4
sS'id'
p5
I139875
ssS'description_refs'
p6
(dp7
sS'title'
p8
S'Ready'
p9
sS'artist'
p10
S'Chaz French'
p11
sS'featured_artists'
p12
(lp13
(dp14
g5
I64930
sg10
VGoldLink
p15
sasS'producers'
p16
(lp17
(dp18
g5
I214067
sg10
VSuper Miles
p19
sasS'references'
p20
(dp21
S'song'
p22
(lp23
(dp24
S'title'
p25
VI Ain't Sharin' Sharon
p26
sS'id'
p27
S'2440697'
p28
sS'artist'
p29
VHank Williams Jr.
p30
sa(dp31
g25
VNovacane
p32
sg27
S'4849'
p33
sg29
VFrank Ocean
p34
sassS'artist_id'
p35
I199577
sg5
I2394578
s.