(dp0
S'album'
p1
(dp2
S'name'
p3
S'Ashes'
p4
sS'id'
p5
I143976
ssS'description_refs'
p6
(dp7
sS'artist'
p8
S'Illenium'
p9
sS'title'
p10
S'Reverie'
p11
sS'featured_artists'
p12
(lp13
(dp14
g5
I325301
sg8
VKing Deco
p15
sasS'writers'
p16
(lp17
(dp18
g5
I639709
sg8
VDana Salah
p19
sasS'references'
p20
(dp21
sS'artist_id'
p22
I582595
sg5
I2423601
s.