(dp0
S'album'
p1
(dp2
S'name'
p3
S'The Marshall Mathers LP 2'
p4
sS'id'
p5
I43437
ssS'description_refs'
p6
(dp7
S'song_unannotated'
p8
(lp9
(dp10
g5
S'67192'
p11
sa(dp12
g5
S'64342'
p13
sassS'artist'
p14
S'Eminem'
p15
sS'title'
p16
S'Rhyme or Reason'
p17
sS'producers'
p18
(lp19
(dp20
g5
I27794
sg14
VRick Rubin
p21
sasS'references'
p22
(dp23
g1
(lp24
(dp25
g3
VThe Slim Shady EP
p26
sg5
S'11167'
p27
sasg8
(lp28
(dp29
g5
S'156'
p30
sa(dp31
g5
S'23377'
p32
sa(dp33
g5
S'51577'
p34
sa(dp35
g5
S'235729'
p36
sa(dp37
g5
S'772'
p38
sa(dp39
g5
S'1010'
p40
sa(dp41
g5
S'2053'
p42
sasg14
(lp43
(dp44
g3
VInsane Clown Posse
p45
sg5
S'311'
p46
sa(dp47
g3
VViolent J
p48
sg5
S'3147'
p49
sa(dp50
g3
VEsham
p51
sg5
S'1608'
p52
sa(dp53
g3
VKid Rock
p54
sg5
S'1566'
p55
sa(dp56
g3
VInsane Clown Posse
p57
sg5
S'311'
p58
sa(dp59
g3
VEminem
p60
sg5
S'45'
p61
sassS'artist_id'
p62
I45
sg5
I235725
s.