(dp0
S'album'
p1
(dp2
S'name'
p3
S'DS2'
p4
sS'id'
p5
I127543
ssS'description_refs'
p6
(dp7
S'artist'
p8
(lp9
(dp10
g3
VTyga
p11
sg5
S'554'
p12
sassg8
S'Future'
p13
sS'title'
p14
S'Rich $ex'
p15
sS'producers'
p16
(lp17
(dp18
g5
I33010
sg8
VMetro Boomin
p19
sa(dp20
g5
I28169
sg8
VFrank Dukes
p21
sa(dp22
g5
I23315
sg8
VSouthside
p23
sasS'references'
p24
(dp25
sS'artist_id'
p26
I2197
sg5
I2214983
s.