(dp0
S'album'
p1
(dp2
S'name'
p3
S'Joyride'
p4
sS'id'
p5
I130069
ssS'description_refs'
p6
(dp7
sS'artist'
p8
S'Tinashe'
p9
sS'title'
p10
S'Ride Of Your Life'
p11
sS'producers'
p12
(lp13
(dp14
g5
I33010
sg8
VMetro Boomin
p15
sasS'references'
p16
(dp17
S'song_unannotated'
p18
(lp19
(dp20
g5
S'2295400'
p21
sa(dp22
g5
S'2295400'
p23
sassS'artist_id'
p24
I25561
sg5
I2416699
s.