(dp0
S'album'
p1
(dp2
S'name'
p3
S"Ego Trippin'"
p4
sS'id'
p5
I9338
ssS'description_refs'
p6
(dp7
sS'artist'
p8
S'Snoop Dogg'
p9
sS'title'
p10
S"Ridin' in My Chevy"
p11
sS'producers'
p12
(lp13
(dp14
g5
I7122
sg8
VScoop DeVille
p15
sasS'references'
p16
(dp17
S'song_unannotated'
p18
(lp19
(dp20
g5
S'42956'
p21
sassS'artist_id'
p22
I46
sg5
I42966
s.