(dp0
S'album'
p1
(dp2
S'name'
p3
S'Jackpot'
p4
sS'id'
p5
I1518
ssS'description_refs'
p6
(dp7
S'song_unannotated'
p8
(lp9
(dp10
g5
S'32167'
p11
sassS'artist'
p12
S'Chingy'
p13
sS'title'
p14
S'Right Thurr'
p15
sS'producers'
p16
(lp17
(dp18
g5
I34333
sg12
VTrak Starz
p19
sasS'references'
p20
(dp21
sS'artist_id'
p22
I645
sg5
I1283
s.