(dp0
S'album'
p1
(dp2
S'name'
p3
S'Jackpot'
p4
sS'id'
p5
I1518
ssS'description_refs'
p6
(dp7
sS'artist'
p8
S'Chingy'
p9
sS'title'
p10
S'Right Thurr (Remix)'
p11
sS'featured_artists'
p12
(lp13
(dp14
g5
I117
sg8
VTrina
p15
sa(dp16
g5
I3264
sg8
VJermaine Dupri
p17
sasS'producers'
p18
(lp19
(dp20
g5
I34333
sg8
VTrak Starz
p21
sasS'references'
p22
(dp23
sS'artist_id'
p24
I645
sg5
I13656
s.