(dp0
S'album'
p1
(dp2
S'name'
p3
S'Bouquet'
p4
sS'id'
p5
I133672
ssS'description_refs'
p6
(dp7
S'song_unannotated'
p8
(lp9
(dp10
g5
S'716814'
p11
sa(dp12
g5
S'1872465'
p13
sa(dp14
g5
S'375924'
p15
sasS'artist'
p16
(lp17
(dp18
g3
VROZES
p19
sg5
S'498435'
p20
sa(dp21
g3
VThe Chainsmokers
p22
sg5
S'150934'
p23
sassg16
S'The Chainsmokers'
p24
sS'title'
p25
S'Roses'
p26
sS'featured_artists'
p27
(lp28
(dp29
g5
I498435
sg16
VROZES
p30
sasS'writers'
p31
(lp32
(dp33
g5
I498435
sg16
VROZES
p34
sasS'references'
p35
(dp36
g8
(lp37
(dp38
g5
S'485222'
p39
sasS'other'
p40
(lp41
(dp42
g5
S'1043'
p43
sg25
VGood Life
p44
sasg16
(lp45
(dp46
g3
VROZES
p47
sg5
S'498435'
p48
sassS'artist_id'
p49
I150934
sg5
I2138429
s.