(dp0
S'album'
p1
(dp2
S'name'
p3
S'The New Toronto'
p4
sS'id'
p5
I140531
ssS'description_refs'
p6
(dp7
sS'artist'
p8
S'Tory Lanez'
p9
sS'title'
p10
S'Round Here'
p11
sS'references'
p12
(dp13
sS'artist_id'
p14
I1632
sg5
I2396836
s.