(dp0
S'album'
p1
(dp2
S'name'
p3
S'Pure Heroine'
p4
sS'id'
p5
I42464
ssS'description_refs'
p6
(dp7
g1
(lp8
(dp9
g3
VThe Love Club
p10
sg5
S'31466'
p11
sasS'song_unannotated'
p12
(lp13
(dp14
g5
S'202955'
p15
sa(dp16
g5
S'209747'
p17
sassS'artist'
p18
S'Lorde'
p19
sS'title'
p20
S'Royals'
p21
sS'producers'
p22
(lp23
(dp24
g5
I63216
sg18
VJoel Little
p25
sasS'writers'
p26
(lp27
(dp28
g5
I63216
sg18
VJoel Little
p29
sasS'references'
p30
(dp31
g1
(lp32
(dp33
g3
VThe Love Club
p34
sg5
S'31466'
p35
sa(dp36
g3
VPure Heroine
p37
sg5
S'42464'
p38
sasg12
(lp39
(dp40
g5
S'36239'
p41
sasS'other'
p42
(lp43
(dp44
g5
S'1781'
p45
sg20
VAll of the Lights
p46
sasS'song'
p47
(lp48
(dp49
g18
VLorde
p50
sg5
S'215157'
p51
sg20
V400 Lux
p52
sa(dp53
g18
VM.I.A.
p54
sg5
S'2171'
p55
sg20
VPaper Planes
p56
sassS'artist_id'
p57
I36944
sg5
I114153
s.