(dp0
S'album'
p1
(dp2
S'name'
p3
S"Don't Kill The Magic"
p4
sS'id'
p5
I108042
ssS'description_refs'
p6
(dp7
sS'artist'
p8
S'MAGIC!'
p9
sS'title'
p10
S'Rude'
p11
sS'references'
p12
(dp13
sS'artist_id'
p14
I188063
sg5
I380162
s.