(dp0
S'description_refs'
p1
(dp2
sS'artist'
p3
S'Hardwell'
p4
sS'title'
p5
S'Run Wild'
p6
sS'featured_artists'
p7
(lp8
(dp9
S'id'
p10
I574102
sg3
VJake Reese
p11
sasS'references'
p12
(dp13
sS'artist_id'
p14
I154344
sg10
I2431426
s.