(dp0
S'album'
p1
(dp2
S'name'
p3
S'Overexposed'
p4
sS'id'
p5
I16329
ssS'description_refs'
p6
(dp7
sS'artist'
p8
S'Maroon 5'
p9
sS'title'
p10
S'Sad'
p11
sS'references'
p12
(dp13
sS'artist_id'
p14
I13539
sg5
I78347
s.