(dp0
S'album'
p1
(dp2
S'name'
p3
S"#1's"
p4
sS'id'
p5
I15673
ssS'description_refs'
p6
(dp7
sS'artist'
p8
S"Destiny's Child"
p9
sS'title'
p10
S'Say My Name'
p11
sS'producers'
p12
(lp13
(dp14
g5
I8491
sg8
VDarkchild
p15
sasS'references'
p16
(dp17
sS'artist_id'
p18
I2831
sg5
I140800
s.