(dp0
S'album'
p1
(dp2
S'name'
p3
S'From Now On'
p4
sS'id'
p5
I140482
ssS'description_refs'
p6
(dp7
sS'artist'
p8
S'Dreezy'
p9
sS'title'
p10
S'Serena'
p11
sS'featured_artists'
p12
(lp13
(dp14
g5
I222357
sg8
VDeJ Loaf
p15
sasS'producers'
p16
(lp17
(dp18
g5
I23315
sg8
VSouthside
p19
sa(dp20
g5
I33010
sg8
VMetro Boomin
p21
sasS'references'
p22
(dp23
S'song_unannotated'
p24
(lp25
(dp26
g5
S'37327'
p27
sa(dp28
g5
S'2361518'
p29
sassS'artist_id'
p30
I41226
sg5
I2396178
s.