(dp0
S'album'
p1
(dp2
S'name'
p3
S'Love Hate'
p4
sS'id'
p5
I18926
ssS'description_refs'
p6
(dp7
sS'artist'
p8
S'The-Dream'
p9
sS'title'
p10
S'Shawty is Da Sh*!'
p11
sS'featured_artists'
p12
(lp13
(dp14
g5
I3
sg8
VFabolous
p15
sasS'producers'
p16
(lp17
(dp18
g5
I38976
sg8
VCarlos "L.O.S. Da Maestro" McKinney
p19
sasS'references'
p20
(dp21
sS'artist_id'
p22
I1181
sg5
I59024
s.