(dp0
S'album'
p1
(dp2
S'name'
p3
S'Rhythm & Quad 166 Vol I'
p4
sS'id'
p5
I4604
ssS'description_refs'
p6
(dp7
sS'artist'
p8
S'K.P.'
p9
sS'title'
p10
S'Shorty Swing My Way'
p11
sS'featured_artists'
p12
(lp13
(dp14
g5
I7237
sg8
VEnvyi
p15
sasS'references'
p16
(dp17
sS'artist_id'
p18
I7236
sg5
I26798
s.