(dp0
S'album'
p1
(dp2
S'name'
p3
S'Monstercat 025 - Threshold'
p4
sS'id'
p5
I146886
ssS'description_refs'
p6
(dp7
sS'artist'
p8
S'Project 46'
p9
sS'title'
p10
S'Signs'
p11
sS'featured_artists'
p12
(lp13
(dp14
g5
I631073
sg8
VShantee
p15
sasS'references'
p16
(dp17
sS'artist_id'
p18
I458874
sg5
I2408283
s.