(dp0
S'album'
p1
(dp2
S'name'
p3
S'Our Love'
p4
sS'id'
p5
I113587
ssS'description_refs'
p6
(dp7
sS'artist'
p8
S'Caribou'
p9
sS'title'
p10
S'Silver'
p11
sS'references'
p12
(dp13
sS'artist_id'
p14
I22962
sg5
I533873
s.