(dp0
S'album'
p1
(dp2
S'name'
p3
S'Daya'
p4
sS'id'
p5
I138088
ssS'description_refs'
p6
(dp7
sS'artist'
p8
S'Daya'
p9
sS'title'
p10
S'Sit Still, Look Pretty'
p11
sS'references'
p12
(dp13
S'song_unannotated'
p14
(lp15
(dp16
g5
S'133137'
p17
sasg8
(lp18
(dp19
g3
VAqua
p20
sg5
S'28227'
p21
sassS'artist_id'
p22
I508218
sg5
I2374092
s.