(dp0
S'album'
p1
(dp2
S'name'
p3
S'Juve the Great'
p4
sS'id'
p5
I4241
ssS'description_refs'
p6
(dp7
sS'artist'
p8
S'Juvenile'
p9
sS'title'
p10
S'Slow Motion'
p11
sS'featured_artists'
p12
(lp13
(dp14
g5
I4220
sg8
VSoulja Slim
p15
sasS'producers'
p16
(lp17
(dp18
g5
I188947
sg8
VDani Kartel
p19
sasS'references'
p20
(dp21
sS'artist_id'
p22
I38
sg5
I4417
s.