(dp0
S'album'
p1
(dp2
S'name'
p3
S'Crunk Rock'
p4
sS'id'
p5
I4896
ssS'description_refs'
p6
(dp7
sS'artist'
p8
S'Lil Jon'
p9
sS'title'
p10
S'Snap Yo Fingers'
p11
sS'featured_artists'
p12
(lp13
(dp14
g5
I7558
sg8
VSean Paul (YoungBloodz)
p15
sa(dp16
g5
I405
sg8
VE-40
p17
sasS'references'
p18
(dp19
S'song_unannotated'
p20
(lp21
(dp22
g5
S'5523'
p23
sasS'other'
p24
(lp25
(dp26
g5
S'18409'
p27
sg10
VCarlos Rossi
p28
sasg8
(lp29
(dp30
g3
VDem Franchize Boyz
p31
sg5
S'1251'
p32
sa(dp33
g3
VE-40
p34
sg5
S'405'
p35
sa(dp36
g3
VB-Legit
p37
sg5
S'1227'
p38
sassS'artist_id'
p39
I107
sg5
I1493
s.