(dp0
S'album'
p1
(dp2
S'name'
p3
S'Drink More Water 6'
p4
sS'id'
p5
I142417
ssS'description_refs'
p6
(dp7
sS'artist'
p8
S'ILoveMakonnen'
p9
sS'title'
p10
S'Solo'
p11
sS'references'
p12
(dp13
sS'artist_id'
p14
I182049
sg5
I2411389
s.