(dp0
S'description_refs'
p1
(dp2
S'song_unannotated'
p3
(lp4
(dp5
S'id'
p6
S'2322014'
p7
sa(dp8
g6
S'2322004'
p9
sa(dp10
g6
S'2322010'
p11
sa(dp12
g6
S'2322009'
p13
sa(dp14
g6
S'2322020'
p15
sasS'song'
p16
(lp17
(dp18
S'artist'
p19
VPARTYNEXTDOOR
p20
sg6
S'2322001'
p21
sS'title'
p22
VOVO Freestyle
p23
sa(dp24
g19
VPARTYNEXTDOOR
p25
sg6
S'2322011'
p26
sg22
VWait For You
p27
sasg19
(lp28
(dp29
S'name'
p30
VTy Dolla $ign
p31
sg6
S'25005'
p32
sa(dp33
g30
VRich The Kid
p34
sg6
S'65109'
p35
sassg19
S'PARTYNEXTDOOR'
p36
sg22
S'Some Of Your Love'
p37
sS'references'
p38
(dp39
S'album'
p40
(lp41
(dp42
g30
VPNDCOLOURS
p43
sg6
S'115982'
p44
sasg3
(lp45
(dp46
g6
S'604004'
p47
sa(dp48
g6
S'604020'
p49
sasS'other'
p50
(lp51
(dp52
g6
S'2263710'
p53
sg22
VNo Feelings
p54
sassS'artist_id'
p55
I47131
sg6
I2322003
s.