(dp0
S'album'
p1
(dp2
S'name'
p3
S'Best of Freetracks'
p4
sS'id'
p5
I88948
ssS'description_refs'
p6
(dp7
S'song_unannotated'
p8
(lp9
(dp10
g5
S'4368'
p11
sassS'artist'
p12
S'Eko Fresh'
p13
sS'title'
p14
S'Space is on'
p15
sS'references'
p16
(dp17
sS'artist_id'
p18
I12455
sg5
I392510
s.