(dp0
S'album'
p1
(dp2
S'name'
p3
S'Chicken-n-Beer'
p4
sS'id'
p5
I5190
ssS'description_refs'
p6
(dp7
sS'artist'
p8
S'Ludacris'
p9
sS'title'
p10
S'Splash Waterfalls'
p11
sS'featured_artists'
p12
(lp13
(dp14
g5
I7674
sg8
VSandy Coffee
p15
sasS'producers'
p16
(lp17
(dp18
g5
I54393
sg8
VIcedrake
p19
sasS'references'
p20
(dp21
sS'artist_id'
p22
I111
sg5
I29529
s.