(dp0
S'description_refs'
p1
(dp2
sS'artist'
p3
S'Lxury'
p4
sS'title'
p5
S'Square 1'
p6
sS'featured_artists'
p7
(lp8
(dp9
S'id'
p10
I230142
sg3
VDeptford Goth
p11
sasS'references'
p12
(dp13
sS'artist_id'
p14
I333488
sg10
I716553
s.