(dp0
S'album'
p1
(dp2
S'name'
p3
S'Cold as Ice'
p4
sS'id'
p5
I1478
ssS'description_refs'
p6
(dp7
sS'artist'
p8
S'Charli Baltimore'
p9
sS'title'
p10
S'Stand Up!'
p11
sS'featured_artists'
p12
(lp13
(dp14
g5
I20
sg8
VGhostface Killah
p15
sasS'producers'
p16
(lp17
(dp18
g5
I307
sg8
VRZA
p19
sasS'references'
p20
(dp21
sS'artist_id'
p22
I4303
sg5
I13556
s.