(dp0
S'album'
p1
(dp2
S'name'
p3
S'Nothing Was the Same'
p4
sS'id'
p5
I40475
ssS'description_refs'
p6
(dp7
sS'artist'
p8
S'Drake'
p9
sS'title'
p10
S'Started from the Bottom'
p11
sS'producers'
p12
(lp13
(dp14
g5
I36862
sg8
VMike Zombie
p15
sasS'writers'
p16
(lp17
(dp18
g5
I27612
sg8
VNoah \u201c40\u201d Shebib
p19
sa(dp20
g5
I36862
sg8
VMike Zombie
p21
sasS'references'
p22
(dp23
S'song_unannotated'
p24
(lp25
(dp26
g5
S'151'
p27
sa(dp28
g5
S'55694'
p29
sasg8
(lp30
(dp31
g3
VFuture
p32
sg5
S'2197'
p33
sa(dp34
g3
VMike Zombie
p35
sg5
S'36862'
p36
sa(dp37
g3
VThe Weeknd
p38
sg5
S'2358'
p39
sassS'artist_id'
p40
I130
sg5
I113898
s.