(dp0
S'album'
p1
(dp2
S'name'
p3
S'Pink Friday: Roman Reloaded'
p4
sS'id'
p5
I13529
ssS'description_refs'
p6
(dp7
sS'artist'
p8
S'Nicki Minaj'
p9
sS'title'
p10
S'Starships'
p11
sS'producers'
p12
(lp13
(dp14
g5
I43555
sg8
VCarl Falk
p15
sa(dp16
g5
I29767
sg8
VRedOne
p17
sa(dp18
g5
I27713
sg8
VRami
p19
sasS'references'
p20
(dp21
sS'artist_id'
p22
I92
sg5
I65701
s.