(dp0
S'album'
p1
(dp2
S'name'
p3
S'Goats Head Soup'
p4
sS'id'
p5
I31806
ssS'description_refs'
p6
(dp7
S'other'
p8
(lp9
(dp10
g5
S'124910'
p11
sS'title'
p12
VStarfuckers Inc.
p13
sassS'artist'
p14
S'The Rolling Stones'
p15
sg12
S'Star Star'
p16
sS'producers'
p17
(lp18
(dp19
g5
I33312
sg14
VJimmy Miller
p20
sasS'references'
p21
(dp22
sS'artist_id'
p23
I774
sg5
I310705
s.