(dp0
S'album'
p1
(dp2
S'name'
p3
S'In The Lonely Hour (Drowning Shadows Edition)'
p4
sS'id'
p5
I132319
ssS'description_refs'
p6
(dp7
S'song_unannotated'
p8
(lp9
(dp10
g5
S'380162'
p11
sa(dp12
g5
S'78980'
p13
sa(dp14
g5
S'284741'
p15
sa(dp16
g5
S'77594'
p17
sa(dp18
g5
S'145060'
p19
sasS'other'
p20
(lp21
(dp22
g5
S'76797'
p23
sS'title'
p24
VJust
p25
sasS'artist'
p26
(lp27
(dp28
g3
VSam Smith
p29
sg5
S'43383'
p30
sa(dp31
g3
VJimmy Napes
p32
sg5
S'95984'
p33
sa(dp34
g3
VTourist
p35
sg5
S'173136'
p36
sa(dp37
g3
VMAGIC!
p38
sg5
S'188063'
p39
sassg26
S'Sam Smith'
p40
sg24
S'Stay With Me'
p41
sS'producers'
p42
(lp43
(dp44
g5
I52183
sg26
VSteve Fitzmaurice
p45
sa(dp46
g5
I95984
sg26
VJimmy Napes
p47
sasS'writers'
p48
(lp49
(dp50
g5
I34990
sg26
VJeff Lynne
p51
sa(dp52
g5
I95984
sg26
VJimmy Napes
p53
sa(dp54
g5
I173136
sg26
VTourist
p55
sa(dp56
g5
I20785
sg26
VTom Petty
p57
sasS'references'
p58
(dp59
g8
(lp60
(dp61
g5
S'422489'
p62
sassS'artist_id'
p63
I43383
sg5
I387414
s.