(dp0
S'album'
p1
(dp2
S'name'
p3
S'Deal or No Deal'
p4
sS'id'
p5
I11205
ssS'description_refs'
p6
(dp7
sS'artist'
p8
S'Wiz Khalifa'
p9
sS'title'
p10
S"Studio Lovin'"
p11
sS'producers'
p12
(lp13
(dp14
g5
I27258
sg8
VJohnny Juliano
p15
sasS'references'
p16
(dp17
sS'artist_id'
p18
I310
sg5
I4609
s.