(dp0
S'album'
p1
(dp2
S'name'
p3
S'Oxymoron'
p4
sS'id'
p5
I30408
ssS'description_refs'
p6
(dp7
g1
(lp8
(dp9
g3
VOxymoron
p10
sg5
S'30408'
p11
sasS'song_unannotated'
p12
(lp13
(dp14
g5
S'72986'
p15
sasS'artist'
p16
(lp17
(dp18
g3
VAb-Soul
p19
sg5
S'2049'
p20
sassg16
S'ScHoolboy Q'
p21
sS'title'
p22
S'Studio'
p23
sS'featured_artists'
p24
(lp25
(dp26
g5
I1955
sg16
VBJ The Chicago Kid
p27
sasS'producers'
p28
(lp29
(dp30
g5
I27819
sg16
VSwiff D
p31
sasS'writers'
p32
(lp33
(dp34
g5
I27819
sg16
VSwiff D
p35
sa(dp36
g5
I1955
sg16
VBJ The Chicago Kid
p37
sasS'references'
p38
(dp39
sS'artist_id'
p40
I11353
sg5
I361656
s.