(dp0
S'album'
p1
(dp2
S'name'
p3
S'1989'
p4
sS'id'
p5
I110728
ssS'description_refs'
p6
(dp7
sS'artist'
p8
S'Taylor Swift'
p9
sS'title'
p10
S'Style'
p11
sS'producers'
p12
(lp13
(dp14
g5
I151087
sg8
VAli Payami
p15
sa(dp16
g5
I27836
sg8
VShellback
p17
sa(dp18
g5
I27835
sg8
VMax Martin
p19
sasS'writers'
p20
(lp21
(dp22
g5
I151087
sg8
VAli Payami
p23
sa(dp24
g5
I27836
sg8
VShellback
p25
sa(dp26
g5
I27835
sg8
VMax Martin
p27
sasS'references'
p28
(dp29
sS'artist_id'
p30
I1177
sg5
I542390
s.