(dp0
S'album'
p1
(dp2
S'name'
p3
S'Dedicated To'
p4
sS'id'
p5
I140076
ssS'description_refs'
p6
(dp7
sS'artist'
p8
S'Tish Hyman'
p9
sS'title'
p10
S'Subway Art'
p11
sS'references'
p12
(dp13
sS'artist_id'
p14
I21415
sg5
I1778090
s.