(dp0
S'album'
p1
(dp2
S'name'
p3
S'V'
p4
sS'id'
p5
I105603
ssS'description_refs'
p6
(dp7
S'song_unannotated'
p8
(lp9
(dp10
g5
S'720555'
p11
sasS'artist'
p12
(lp13
(dp14
g3
VMike Posner
p15
sg5
S'654'
p16
sassg12
S'Maroon 5'
p17
sS'title'
p18
S'Sugar'
p19
sS'producers'
p20
(lp21
(dp22
g5
I30425
sg12
VCirkut
p23
sa(dp24
g5
I9654
sg12
VAmmo
p25
sasS'writers'
p26
(lp27
(dp28
g5
I30425
sg12
VCirkut
p29
sa(dp30
g5
I285817
sg12
VJacob Kasher
p31
sa(dp32
g5
I669
sg12
VAdam Levine
p33
sa(dp34
g5
I9654
sg12
VAmmo
p35
sa(dp36
g5
I654
sg12
VMike Posner
p37
sasS'references'
p38
(dp39
g8
(lp40
(dp41
g5
S'1130769'
p42
sa(dp43
g5
S'87556'
p44
sa(dp45
g5
S'399146'
p46
sa(dp47
g5
S'4164'
p48
sasS'other'
p49
(lp50
(dp51
g5
S'102120'
p52
sg18
VThis Love
p53
sa(dp54
g5
S'102120'
p55
sg18
VThis Love
p56
sasg12
(lp57
(dp58
g3
VThe Supremes
p59
sg5
S'100713'
p60
sassS'artist_id'
p61
I13539
sg5
I508933
s.