(dp0
S'album'
p1
(dp2
S'name'
p3
S'Joytime'
p4
sS'id'
p5
I141465
ssS'description_refs'
p6
(dp7
sS'artist'
p8
S'Marshmello'
p9
sS'title'
p10
S'Summer'
p11
sS'references'
p12
(dp13
sS'artist_id'
p14
I582361
sg5
I2423497
s.