(dp0
S'album'
p1
(dp2
S'name'
p3
S'Views From The 6'
p4
sS'id'
p5
I132506
ssS'description_refs'
p6
(dp7
g1
(lp8
(dp9
g3
VViews From The 6
p10
sg5
S'132506'
p11
sasS'other'
p12
(lp13
(dp14
g5
S'2415314'
p15
sS'title'
p16
VWar Pain
p17
sasS'song'
p18
(lp19
(dp20
S'title'
p21
VOVO Sound Radio Episode 14 Tracklist
p22
sS'id'
p23
S'2413886'
p24
sS'artist'
p25
VDrake
p26
sassS'artist'
p27
S'Drake'
p28
sg16
S'Summer Sixteen'
p29
sS'producers'
p30
(lp31
(dp32
g5
I27612
sg27
VNoah \u201c40\u201d Shebib
p33
sa(dp34
g5
I662
sg27
VBoi-1da
p35
sa(dp36
g5
I634949
sg27
VBrian Bennett
p37
sa(dp38
g5
I32429
sg27
VCubeatz
p39
sasS'references'
p40
(dp41
g1
(lp42
(dp43
g3
VThe Life of Pablo
p44
sg5
S'120604'
p45
sasS'song_unannotated'
p46
(lp47
(dp48
S'id'
p49
S'140752'
p50
sa(dp51
g49
S'156640'
p52
sa(dp53
g49
S'2266961'
p54
sasg12
(lp55
(dp56
g5
S'1791'
p57
sg16
VGorgeous
p58
sasg27
(lp59
(dp60
g3
VTory Lanez
p61
sg5
S'1632'
p62
sa(dp63
g3
VTory Lanez
p64
sg5
S'1632'
p65
sa(dp66
g3
VKeY Wane
p67
sg5
S'27638'
p68
sa(dp69
g3
VMeek Mill
p70
sg5
S'1319'
p71
sasS'song'
p72
(lp73
(dp74
S'artist'
p75
VTory Lanez
p76
sg49
S'2310122'
p77
sS'title'
p78
VB.L.O.W.
p79
sa(dp80
g75
VDrake
p81
sg49
S'217266'
p82
sg78
VWorst Behavior
p83
sa(dp84
g75
VTory Lanez
p85
sg49
S'2396836'
p86
sg78
VRound Here
p87
sa(dp88
g75
VMeek Mill
p89
sg49
S'73301'
p90
sg78
VAmen
p91
sa(dp92
g75
VDrake
p93
sg49
S'196551'
p94
sg78
VAll Me
p95
sa(dp96
g75
VDrake
p97
sg49
S'51360'
p98
sg78
VTrust Issues
p99
sa(dp100
g75
VDrake
p101
sg49
S'703742'
p102
sg78
VNo Tellin'
p103
sassS'artist_id'
p104
I130
sg5
I2415289
s.