(dp0
S'album'
p1
(dp2
S'name'
p3
S'Definitely Maybe'
p4
sS'id'
p5
I22545
ssS'description_refs'
p6
(dp7
g1
(lp8
(dp9
g3
VStop The Clocks
p10
sg5
S'80251'
p11
sa(dp12
g3
VTime Flies... 1994\u20132009
p13
sg5
S'122913'
p14
sassS'artist'
p15
S'Oasis'
p16
sS'title'
p17
S'Supersonic'
p18
sS'producers'
p19
(lp20
(dp21
g5
I69347
sg15
VNoel Gallagher
p22
sa(dp23
g5
I124415
sg15
VMark Coyle
p24
sasS'writers'
p25
(lp26
(dp27
g5
I69347
sg15
VNoel Gallagher
p28
sasS'references'
p29
(dp30
g1
(lp31
(dp32
g3
V(What's The Story) Morning Glory? 
p33
sg5
S'17740'
p34
sasS'song_unannotated'
p35
(lp36
(dp37
g5
S'118473'
p38
sa(dp39
g5
S'119645'
p40
sa(dp41
g5
S'351928'
p42
sassS'artist_id'
p43
I21100
sg5
I327470
s.