(dp0
S'album'
p1
(dp2
S'name'
p3
S'Rockferry'
p4
sS'id'
p5
I91239
ssS'description_refs'
p6
(dp7
sS'artist'
p8
S'Duffy'
p9
sS'title'
p10
S'Syrup & Honey'
p11
sS'references'
p12
(dp13
sS'artist_id'
p14
I11110
sg5
I394854
s.