(dp0
S'album'
p1
(dp2
S'name'
p3
S'Hozier'
p4
sS'id'
p5
I113336
ssS'description_refs'
p6
(dp7
sS'artist'
p8
S'Hozier'
p9
sS'title'
p10
S'Take Me to Church'
p11
sS'producers'
p12
(lp13
(dp14
g5
I133664
sg8
VRob Kirwan
p15
sasS'references'
p16
(dp17
sS'artist_id'
p18
I73910
sg5
I226866
s.