(dp0
S'description_refs'
p1
(dp2
S'song_unannotated'
p3
(lp4
(dp5
S'id'
p6
S'40822'
p7
sasS'artist'
p8
(lp9
(dp10
S'name'
p11
VLil Jon
p12
sg6
S'107'
p13
sa(dp14
g11
VKanye West
p15
sg6
S'72'
p16
sa(dp17
g11
VIce Cube
p18
sg6
S'186'
p19
sa(dp20
g11
VRun-D.M.C.
p21
sg6
S'1124'
p22
sassg8
S'E-40'
p23
sS'title'
p24
S'Tell Me When to Go (Remix)'
p25
sS'featured_artists'
p26
(lp27
(dp28
g6
I186
sg8
VIce Cube
p29
sa(dp30
g6
I72
sg8
VKanye West
p31
sasS'producers'
p32
(lp33
(dp34
g6
I107
sg8
VLil Jon
p35
sasS'references'
p36
(dp37
g3
(lp38
(dp39
g6
S'32609'
p40
sa(dp41
g6
S'40822'
p42
sasg8
(lp43
(dp44
g11
VKeyshia Cole
p45
sg6
S'782'
p46
sa(dp47
g11
VRun-D.M.C.
p48
sg6
S'1124'
p49
sassS'artist_id'
p50
I405
sg6
I18506
s.