(dp0
S'album'
p1
(dp2
S'name'
p3
S'Thank Me Later'
p4
sS'id'
p5
I2630
ssS'description_refs'
p6
(dp7
sS'artist'
p8
S'Drake'
p9
sS'title'
p10
S'Thank Me Now'
p11
sS'producers'
p12
(lp13
(dp14
g5
I112
sg8
VTimbaland
p15
sasS'references'
p16
(dp17
sS'artist_id'
p18
I130
sg5
I518
s.