(dp0
S'album'
p1
(dp2
S'name'
p3
S'The Beauty of Independence'
p4
sS'id'
p5
I111270
ssS'description_refs'
p6
(dp7
sS'artist'
p8
S'G-Unit'
p9
sS'title'
p10
S'The Plug'
p11
sS'producers'
p12
(lp13
(dp14
g5
I30246
sg8
VEric G
p15
sasS'references'
p16
(dp17
g8
(lp18
(dp19
g3
VG-Unit
p20
sg5
S'2035'
p21
sassS'artist_id'
p22
I2035
sg5
I505193
s.