(dp0
S'album'
p1
(dp2
S'name'
p3
S'Beauty Behind the Madness'
p4
sS'id'
p5
I127525
ssS'description_refs'
p6
(dp7
S'song_unannotated'
p8
(lp9
(dp10
g5
S'89440'
p11
sa(dp12
g5
S'2327062'
p13
sa(dp14
g5
S'2327067'
p15
sasS'song'
p16
(lp17
(dp18
S'artist'
p19
VThe Weeknd
p20
sg5
S'729458'
p21
sS'title'
p22
VCan't Feel My Face
p23
sa(dp24
g19
VRihanna
p25
sg5
S'1812'
p26
sg22
VWhat's My Name?
p27
sasg19
(lp28
(dp29
g3
VRihanna
p30
sg5
S'89'
p31
sa(dp32
g3
VDrake
p33
sg5
S'130'
p34
sassg19
S'The Weeknd'
p35
sg22
S'The Hills'
p36
sS'producers'
p37
(lp38
(dp39
g5
I28480
sg19
VIllangelo
p40
sa(dp41
g5
I12802
sg19
VMano
p42
sasS'writers'
p43
(lp44
(dp45
g5
I1362
sg19
VBelly
p46
sa(dp47
g5
I12802
sg19
VMano
p48
sa(dp49
g5
I28480
sg19
VIllangelo
p50
sasS'references'
p51
(dp52
g8
(lp53
(dp54
g5
S'54471'
p55
sasg19
(lp56
(dp57
g3
VTaylor Swift
p58
sg5
S'1177'
p59
sa(dp60
g3
VAriana Grande
p61
sg5
S'26507'
p62
sa(dp63
g3
VBig Sean
p64
sg5
S'492'
p65
sa(dp66
g3
VAriana Grande
p67
sg5
S'26507'
p68
sa(dp69
g3
VBig Sean
p70
sg5
S'492'
p71
sasg16
(lp72
(dp73
g19
VAriana Grande
p74
sg5
S'501510'
p75
sg22
VLove Me Harder
p76
sa(dp77
g19
VAriana Grande
p78
sg5
S'501510'
p79
sg22
VLove Me Harder
p80
sassS'artist_id'
p81
I2358
sg5
I727466
s.