(dp0
S'album'
p1
(dp2
S'name'
p3
S'The Infamous'
p4
sS'id'
p5
I6724
ssS'description_refs'
p6
(dp7
sS'artist'
p8
S'Mobb Deep'
p9
sS'title'
p10
S'The Start Of Your Ending (41st Side)'
p11
sS'producers'
p12
(lp13
(dp14
g5
I1555
sg8
VHavoc
p15
sasS'references'
p16
(dp17
g8
(lp18
(dp19
g3
VInfamous
p20
sg5
S'195546'
p21
sassS'artist_id'
p22
I251
sg5
I33581
s.