(dp0
S'description_refs'
p1
(dp2
S'song_unannotated'
p3
(lp4
(dp5
S'id'
p6
S'94644'
p7
sasS'artist'
p8
(lp9
(dp10
S'name'
p11
VJeremih
p12
sg6
S'278'
p13
sa(dp14
g11
VDJ Mustard
p15
sg6
S'29780'
p16
sa(dp17
g11
VMike Free
p18
sg6
S'33152'
p19
sa(dp20
g11
VMarvin Gaye
p21
sg6
S'944'
p22
sassg8
S'Nelly'
p23
sS'title'
p24
S'The Fix'
p25
sS'featured_artists'
p26
(lp27
(dp28
g6
I278
sg8
VJeremih
p29
sasS'producers'
p30
(lp31
(dp32
g6
I33152
sg8
VMike Free
p33
sa(dp34
g6
I29780
sg8
VDJ Mustard
p35
sasS'writers'
p36
(lp37
(dp38
g6
I19517
sg8
VKQuick
p39
sa(dp40
g6
I69893
sg8
VDavid Ritz
p41
sa(dp42
g6
I583923
sg8
VOdell Brown
p43
sa(dp44
g6
I944
sg8
VMarvin Gaye
p45
sa(dp46
g6
I583921
sg8
VDevon Bell
p47
sa(dp48
g6
I583920
sg8
VCeresia Blanchard
p49
sa(dp50
g6
I164533
sg8
VMikely Adams
p51
sa(dp52
g6
I583918
sg8
VJeremih Felton
p53
sa(dp54
g6
I583917
sg8
VCornell Haynes Jr.
p55
sasS'references'
p56
(dp57
g3
(lp58
(dp59
g6
S'94644'
p60
sa(dp61
g6
S'2315169'
p62
sa(dp63
g6
S'430538'
p64
sa(dp65
g6
S'1646'
p66
sasg8
(lp67
(dp68
g11
VAshanti
p69
sg6
S'2675'
p70
sassS'artist_id'
p71
I148
sg6
I2275742
s.