(dp0
S'album'
p1
(dp2
S'name'
p3
S'Ingleworld 2'
p4
sS'id'
p5
I113867
ssS'description_refs'
p6
(dp7
sS'artist'
p8
S'Skeme'
p9
sS'title'
p10
S'The Man'
p11
sS'featured_artists'
p12
(lp13
(dp14
g5
I217208
sg8
VLil Uzi Vert
p15
sasS'producers'
p16
(lp17
(dp18
g5
I28651
sg8
VDJ Plugg
p19
sasS'references'
p20
(dp21
sS'artist_id'
p22
I12939
sg5
I2273460
s.