(dp0
S'album'
p1
(dp2
S'name'
p3
S'Let It Be'
p4
sS'id'
p5
I29393
ssS'description_refs'
p6
(dp7
sS'artist'
p8
S'The Beatles'
p9
sS'title'
p10
S'The Long And Winding Road'
p11
sS'producers'
p12
(lp13
(dp14
g5
I29024
sg8
VPhil Spector
p15
sasS'references'
p16
(dp17
sS'artist_id'
p18
I586
sg5
I123451
s.