(dp0
S'album'
p1
(dp2
S'name'
p3
S'How I Got Over'
p4
sS'id'
p5
I8801
ssS'description_refs'
p6
(dp7
sS'artist'
p8
S'The Roots'
p9
sS'title'
p10
S'The Fire'
p11
sS'featured_artists'
p12
(lp13
(dp14
g5
I365
sg8
VJohn Legend
p15
sasS'producers'
p16
(lp17
(dp18
g5
I30633
sg8
VRichard Nichols
p19
sa(dp20
g5
I316
sg8
VDice Raw
p21
sa(dp22
g5
I30569
sg8
VQuestlove
p23
sa(dp24
g5
I30201
sg8
VRick Friedrich
p25
sasS'writers'
p26
(lp27
(dp28
g5
I30201
sg8
VRick Friedrich
p29
sa(dp30
g5
I316
sg8
VDice Raw
p31
sa(dp32
g5
I30569
sg8
VQuestlove
p33
sa(dp34
g5
I176
sg8
VBlack Thought
p35
sasS'references'
p36
(dp37
sS'artist_id'
p38
I244
sg5
I591
s.