(dp0
S'album'
p1
(dp2
S'name'
p3
S'x'
p4
sS'id'
p5
I92635
ssS'description_refs'
p6
(dp7
sS'artist'
p8
S'Ed Sheeran'
p9
sS'title'
p10
S'Thinking Out Loud'
p11
sS'producers'
p12
(lp13
(dp14
g5
I52806
sg8
VJake Gosling
p15
sasS'writers'
p16
(lp17
(dp18
g5
I397914
sg8
VAmy Wadge
p19
sasS'references'
p20
(dp21
g1
(lp22
(dp23
g3
VThe Fault in Our Stars: Music from the Motion Picture
p24
sg5
S'101354'
p25
sasS'song_unannotated'
p26
(lp27
(dp28
g5
S'425884'
p29
sa(dp30
g5
S'578718'
p31
sasS'other'
p32
(lp33
(dp34
g5
S'138947'
p35
sg10
VMysterious Ways
p36
sassS'artist_id'
p37
I12418
sg5
I437103
s.