(dp0
S'album'
p1
(dp2
S'name'
p3
S'DS2'
p4
sS'id'
p5
I127543
ssS'description_refs'
p6
(dp7
S'artist'
p8
(lp9
(dp10
g3
VCiara
p11
sg5
S'1630'
p12
sassg8
S'Future'
p13
sS'title'
p14
S'Thought It Was A Drought'
p15
sS'producers'
p16
(lp17
(dp18
g5
I55684
sg8
VAllen Ritter
p19
sa(dp20
g5
I33010
sg8
VMetro Boomin
p21
sasS'references'
p22
(dp23
sS'artist_id'
p24
I2197
sg5
I2213836
s.