(dp0
S'album'
p1
(dp2
S'name'
p3
S'Exodus'
p4
sS'id'
p5
I24652
ssS'description_refs'
p6
(dp7
sS'artist'
p8
S'Bob Marley & The Wailers'
p9
sS'title'
p10
S'Three Little Birds'
p11
sS'writers'
p12
(lp13
(dp14
g5
I922
sg8
VBob Marley
p15
sasS'references'
p16
(dp17
sS'artist_id'
p18
I28615
sg5
I58349
s.