(dp0
S'album'
p1
(dp2
S'name'
p3
S'Luv is Rage'
p4
sS'id'
p5
I134311
ssS'description_refs'
p6
(dp7
sS'title'
p8
S'Top'
p9
sS'artist'
p10
S'Lil Uzi Vert'
p11
sS'producers'
p12
(lp13
(dp14
g5
I23691
sg10
VDJ Don Cannon
p15
sasS'references'
p16
(dp17
S'song_unannotated'
p18
(lp19
(dp20
S'id'
p21
S'2711'
p22
sasS'song'
p23
(lp24
(dp25
S'title'
p26
VThe Man
p27
sg21
S'2273460'
p28
sS'artist'
p29
VSkeme
p30
sasg10
(lp31
(dp32
g3
VLil B
p33
sg5
S'455'
p34
sassS'artist_id'
p35
I217208
sg5
I2344225
s.