(dp0
S'album'
p1
(dp2
S'name'
p3
S'#1 to Infinity'
p4
sS'id'
p5
I123106
ssS'description_refs'
p6
(dp7
S'artist'
p8
(lp9
(dp10
g3
VElvis Presley
p11
sg5
S'1645'
p12
sassg8
S'Mariah Carey'
p13
sS'title'
p14
S'Touch My Body'
p15
sS'producers'
p16
(lp17
(dp18
g5
I27603
sg8
VTricky Stewart
p19
sasS'references'
p20
(dp21
sS'artist_id'
p22
I1205
sg5
I115451
s.