(dp0
S'album'
p1
(dp2
S'name'
p3
S'Catastrophic 2'
p4
sS'id'
p5
I110003
ssS'description_refs'
p6
(dp7
S'song_unannotated'
p8
(lp9
(dp10
g5
S'382012'
p11
sassS'artist'
p12
S'O.T. Genasis'
p13
sS'title'
p14
S'Touchdown (Remix)'
p15
sS'featured_artists'
p16
(lp17
(dp18
g5
I1583
sg12
VFrench Montana
p19
sa(dp20
g5
I338
sg12
VBusta Rhymes
p21
sa(dp22
g5
I1073
sg12
VJuicy J
p23
sasS'references'
p24
(dp25
sS'artist_id'
p26
I154225
sg5
I437376
s.