(dp0
S'album'
p1
(dp2
S'name'
p3
S'Hot, Cool and Vicious'
p4
sS'id'
p5
I8996
ssS'description_refs'
p6
(dp7
sS'artist'
p8
S'Salt-N-Pepa'
p9
sS'title'
p10
S'Tramp'
p11
sS'references'
p12
(dp13
sS'artist_id'
p14
I1554
sg5
I41376
s.