(dp0
S'album'
p1
(dp2
S'name'
p3
S'Fetty Wap '
p4
sS'id'
p5
I129747
ssS'description_refs'
p6
(dp7
S'song_unannotated'
p8
(lp9
(dp10
g5
S'21929'
p11
sassS'artist'
p12
S'Fetty Wap'
p13
sS'title'
p14
S'Trap Queen'
p15
sS'producers'
p16
(lp17
(dp18
g5
I61488
sg12
VTony Fadd
p19
sasS'references'
p20
(dp21
g8
(lp22
(dp23
g5
S'168255'
p24
sa(dp25
g5
S'1800164'
p26
sa(dp27
g5
S'710897'
p28
sasg12
(lp29
(dp30
g3
VRemy Boyz
p31
sg5
S'211094'
p32
sa(dp33
g3
VFetty Wap
p34
sg5
S'216609'
p35
sa(dp36
g3
VMonty
p37
sg5
S'19635'
p38
sa(dp39
g3
VP-Dice
p40
sg5
S'324091'
p41
sassS'artist_id'
p42
I216609
sg5
I496445
s.