(dp0
S'album'
p1
(dp2
S'name'
p3
S'The Pinkprint'
p4
sS'id'
p5
I97218
ssS'description_refs'
p6
(dp7
g1
(lp8
(dp9
g3
VThe Pinkprint
p10
sg5
S'97218'
p11
sasS'song_unannotated'
p12
(lp13
(dp14
g5
S'737588'
p15
sassS'artist'
p16
S'Nicki Minaj'
p17
sS'title'
p18
S'Truffle Butter'
p19
sS'featured_artists'
p20
(lp21
(dp22
g5
I4
sg16
VLil Wayne
p23
sa(dp24
g5
I130
sg16
VDrake
p25
sasS'producers'
p26
(lp27
(dp28
g5
I64581
sg16
VNineteen85
p29
sasS'references'
p30
(dp31
S'other'
p32
(lp33
(dp34
g5
S'512070'
p35
sg18
VWhatcha Say
p36
sa(dp37
g5
S'293976'
p38
sg18
VDanny Glover (2 Bitches)
p39
sasg16
(lp40
(dp41
g3
VThe-Dream
p42
sg5
S'1181'
p43
sa(dp44
g3
VMally Mall
p45
sg5
S'36352'
p46
sa(dp47
g3
VYoung Thug
p48
sg5
S'20503'
p49
sassS'artist_id'
p50
I92
sg5
I622818
s.