(dp0
S'description_refs'
p1
(dp2
S'song_unannotated'
p3
(lp4
(dp5
S'id'
p6
S'50025'
p7
sassS'artist'
p8
S'Drake'
p9
sS'title'
p10
S'Trust Issues'
p11
sS'producers'
p12
(lp13
(dp14
g6
I27916
sg8
VAdrian X
p15
sa(dp16
g6
I27612
sg8
VNoah \u201c40\u201d Shebib
p17
sasS'references'
p18
(dp19
g3
(lp20
(dp21
g6
S'50025'
p22
sassS'artist_id'
p23
I130
sg6
I51360
s.