(dp0
S'album'
p1
(dp2
S'name'
p3
S'Pluto 3D'
p4
sS'id'
p5
I23597
ssS'description_refs'
p6
(dp7
g1
(lp8
(dp9
g3
VHonest
p10
sg5
S'41797'
p11
sasS'artist'
p12
(lp13
(dp14
g3
VMike WiLL Made It
p15
sg5
S'29978'
p16
sassg12
S'Future'
p17
sS'title'
p18
S'Turn On the Lights'
p19
sS'producers'
p20
(lp21
(dp22
g5
I29978
sg12
VMike WiLL Made It
p23
sasS'references'
p24
(dp25
sS'artist_id'
p26
I2197
sg5
I71649
s.