(dp0
S'description_refs'
p1
(dp2
S'artist'
p3
(lp4
(dp5
S'name'
p6
VRoyce Rizzy
p7
sS'id'
p8
S'288690'
p9
sassS'title'
p10
S'Uber Everywhere'
p11
sg3
S'Madeintyo'
p12
sS'producers'
p13
(lp14
(dp15
g8
I557559
sg3
VK. Swisha
p16
sasS'references'
p17
(dp18
S'song'
p19
(lp20
(dp21
S'title'
p22
VNuttin No Go So
p23
sS'id'
p24
S'101184'
p25
sS'artist'
p26
VNotch
p27
sa(dp28
g22
VNawfside
p29
sg24
S'569389'
p30
sg26
VMigos
p31
sasg3
(lp32
(dp33
g6
VMadeintyo
p34
sg8
S'346237'
p35
sa(dp36
g6
VNotch
p37
sg8
S'9972'
p38
sassS'artist_id'
p39
I346237
sg8
I2342860
s.