(dp0
S'album'
p1
(dp2
S'name'
p3
S'Kollage'
p4
sS'id'
p5
I732
ssS'description_refs'
p6
(dp7
sS'artist'
p8
S'Bahamadia'
p9
sS'title'
p10
S'Uknowhowwedu'
p11
sS'producers'
p12
(lp13
(dp14
g5
I12991
sg8
VSki Beatz
p15
sasS'references'
p16
(dp17
sS'artist_id'
p18
I3442
sg5
I9723
s.