(dp0
S'album'
p1
(dp2
S'name'
p3
S'Uncomfortable'
p4
sS'id'
p5
I127762
ssS'description_refs'
p6
(dp7
sS'artist'
p8
S'Andy Mineo'
p9
sS'title'
p10
S'Uncomfortable'
p11
sS'producers'
p12
(lp13
(dp14
g5
I46039
sg8
VJoseph Prielozny
p15
sa(dp16
g5
I99899
sg8
VGAWVI
p17
sa(dp18
g5
I10418
sg8
V!llmind
p19
sa(dp20
g5
I189354
sg8
VGabriel Lambirth
p21
sasS'writers'
p22
(lp23
(dp24
g5
I99899
sg8
VGAWVI
p25
sa(dp26
g5
I46039
sg8
VJoseph Prielozny
p27
sa(dp28
g5
I189354
sg8
VGabriel Lambirth
p29
sa(dp30
g5
I10418
sg8
V!llmind
p31
sa(dp32
g5
I24566
sg8
VMali Music
p33
sasS'references'
p34
(dp35
g1
(lp36
(dp37
g3
VNever Land
p38
sg5
S'79200'
p39
sasS'song_unannotated'
p40
(lp41
(dp42
g5
S'349703'
p43
sa(dp44
g5
S'149962'
p45
sa(dp46
g5
S'1120907'
p47
sassS'artist_id'
p48
I14035
sg5
I2275965
s.