(dp0
S'album'
p1
(dp2
S'name'
p3
S'Thank Me Later'
p4
sS'id'
p5
I2630
ssS'description_refs'
p6
(dp7
S'artist'
p8
(lp9
(dp10
g3
VNicki Minaj
p11
sg5
S'92'
p12
sassg8
S'Drake'
p13
sS'title'
p14
S'Up All Night'
p15
sS'featured_artists'
p16
(lp17
(dp18
g5
I92
sg8
VNicki Minaj
p19
sasS'producers'
p20
(lp21
(dp22
g5
I27683
sg8
VMatthew Burnett
p23
sa(dp24
g5
I662
sg8
VBoi-1da
p25
sasS'references'
p26
(dp27
S'song_unannotated'
p28
(lp29
(dp30
g5
S'156'
p31
sassS'artist_id'
p32
I130
sg5
I517
s.