(dp0
S'album'
p1
(dp2
S'name'
p3
S'Automatic'
p4
sS'id'
p5
I129489
ssS'description_refs'
p6
(dp7
sS'artist'
p8
S'Kaskade'
p9
sS'title'
p10
S'Us'
p11
sS'references'
p12
(dp13
sS'artist_id'
p14
I20775
sg5
I2315590
s.