(dp0
S'album'
p1
(dp2
S'name'
p3
S'Only By the Night'
p4
sS'id'
p5
I12660
ssS'description_refs'
p6
(dp7
sS'artist'
p8
S'Kings Of Leon'
p9
sS'title'
p10
S'Use Somebody'
p11
sS'references'
p12
(dp13
sS'artist_id'
p14
I1174
sg5
I51003
s.