(dp0
S'album'
p1
(dp2
S'name'
p3
S'Benjamin Booker'
p4
sS'id'
p5
I117996
ssS'description_refs'
p6
(dp7
sS'artist'
p8
S'Benjamin Booker'
p9
sS'title'
p10
S'Violent Shiver'
p11
sS'references'
p12
(dp13
sS'artist_id'
p14
I246734
sg5
I550920
s.