(dp0
S'description_refs'
p1
(dp2
S'song_unannotated'
p3
(lp4
(dp5
S'id'
p6
S'2322001'
p7
sa(dp8
g6
S'2322003'
p9
sa(dp10
g6
S'2322014'
p11
sa(dp12
g6
S'2322004'
p13
sa(dp14
g6
S'2322010'
p15
sa(dp16
g6
S'2322009'
p17
sa(dp18
g6
S'2322020'
p19
sa(dp20
g6
S'106362'
p21
sasS'artist'
p22
(lp23
(dp24
S'name'
p25
VTy Dolla $ign
p26
sg6
S'25005'
p27
sa(dp28
g25
VRich The Kid
p29
sg6
S'65109'
p30
sa(dp31
g25
VToro Y Moi
p32
sg6
S'14082'
p33
sassg22
S'PARTYNEXTDOOR'
p34
sS'title'
p35
S'Wait For You'
p36
sS'references'
p37
(dp38
g3
(lp39
(dp40
g6
S'478469'
p41
sa(dp42
g6
S'732419'
p43
sassS'artist_id'
p44
I47131
sg6
I2322011
s.