(dp0
S'description_refs'
p1
(dp2
sS'artist'
p3
S'RG France Translations'
p4
sS'title'
p5
S'Wale - Ambition ft. Rick Ross et Meek Mill (French Version)'
p6
sS'references'
p7
(dp8
sS'artist_id'
p9
I140856
sS'id'
p10
I88225
s.