(dp0
S'album'
p1
(dp2
S'name'
p3
S'Life Of A Hot Boy 2: Real Trapper'
p4
sS'id'
p5
I126585
ssS'description_refs'
p6
(dp7
sS'artist'
p8
S'Bankroll Fresh'
p9
sS'title'
p10
S'Walked In'
p11
sS'featured_artists'
p12
(lp13
(dp14
g5
I1355
sg8
VTravis Porter
p15
sa(dp16
g5
I451809
sg8
VBoochie
p17
sasS'producers'
p18
(lp19
(dp20
g5
I210443
sg8
VMr. 2-17
p21
sasS'references'
p22
(dp23
sS'artist_id'
p24
I92265
sg5
I1783676
s.