(dp0
S'album'
p1
(dp2
S'name'
p3
S'Spice'
p4
sS'id'
p5
I21802
ssS'description_refs'
p6
(dp7
sS'artist'
p8
S'Spice Girls'
p9
sS'title'
p10
S'Wannabe'
p11
sS'references'
p12
(dp13
sS'artist_id'
p14
I13074
sg5
I89740
s.