(dp0
S'album'
p1
(dp2
S'name'
p3
S'Hunter Hayes'
p4
sS'id'
p5
I19487
ssS'description_refs'
p6
(dp7
sS'artist'
p8
S'Hunter Hayes'
p9
sS'title'
p10
S'Wanted'
p11
sS'references'
p12
(dp13
sS'artist_id'
p14
I22977
sg5
I82339
s.