(dp0
S'album'
p1
(dp2
S'name'
p3
S'Glitch'
p4
sS'id'
p5
I145621
ssS'description_refs'
p6
(dp7
sS'artist'
p8
S'Roscoe Dash 2.0'
p9
sS'title'
p10
S'Want This'
p11
sS'featured_artists'
p12
(lp13
(dp14
g5
I4271
sg8
VCadence
p15
sa(dp16
g5
I63142
sg8
VDJ Carisma
p17
sasS'references'
p18
(dp19
sS'artist_id'
p20
I249529
sg5
I2434697
s.