(dp0
S'description_refs'
p1
(dp2
sS'artist'
p3
S'Louis Futon'
p4
sS'title'
p5
S'Wasted On You'
p6
sS'featured_artists'
p7
(lp8
(dp9
S'id'
p10
I498435
sg3
VROZES
p11
sasS'references'
p12
(dp13
sS'artist_id'
p14
I639354
sg10
I2423091
s.