(dp0
S'album'
p1
(dp2
S'name'
p3
S'Trapavelli Tre'
p4
sS'id'
p5
I127994
ssS'description_refs'
p6
(dp7
S'artist'
p8
(lp9
(dp10
g3
VFKi
p11
sg5
S'15379'
p12
sassg8
S'2 Chainz'
p13
sS'title'
p14
S'Watch Out'
p15
sS'producers'
p16
(lp17
(dp18
g5
I15379
sg8
VFKi
p19
sasS'references'
p20
(dp21
S'song_unannotated'
p22
(lp23
(dp24
g5
S'72995'
p25
sassS'artist_id'
p26
I14325
sg5
I2255131
s.