(dp0
S'description_refs'
p1
(dp2
sS'artist'
p3
S'LVNDSCAPE & Holland Park'
p4
sS'title'
p5
S'Waterfalls'
p6
sS'featured_artists'
p7
(lp8
(dp9
S'id'
p10
I629890
sg3
VNico Santos
p11
sasS'references'
p12
(dp13
sS'artist_id'
p14
I644493
sg10
I2430733
s.