(dp0
S'album'
p1
(dp2
S'name'
p3
S'GO:OD AM '
p4
sS'id'
p5
I128662
ssS'description_refs'
p6
(dp7
sS'title'
p8
S'Weekend'
p9
sS'artist'
p10
S'Mac Miller'
p11
sS'featured_artists'
p12
(lp13
(dp14
g5
I446
sg10
VMiguel
p15
sasS'references'
p16
(dp17
S'song'
p18
(lp19
(dp20
S'title'
p21
VOne Love
p22
sS'id'
p23
S'454'
p24
sS'artist'
p25
VNas
p26
sasg10
(lp27
(dp28
g3
VNas
p29
sg5
S'56'
p30
sassS'artist_id'
p31
I820
sg5
I2305085
s.