(dp0
S'album'
p1
(dp2
S'name'
p3
S'Loud'
p4
sS'id'
p5
I6336
ssS'description_refs'
p6
(dp7
sS'artist'
p8
S'Rihanna'
p9
sS'title'
p10
S"What's My Name?"
p11
sS'featured_artists'
p12
(lp13
(dp14
g5
I130
sg8
VDrake
p15
sasS'producers'
p16
(lp17
(dp18
g5
I27578
sg8
VStarGate
p19
sasS'writers'
p20
(lp21
(dp22
g5
I7672
sg8
VEster Dean
p23
sa(dp24
g5
I648546
sg8
VTraci Hale
p25
sa(dp26
g5
I130
sg8
VDrake
p27
sa(dp28
g5
I27578
sg8
VStarGate
p29
sasS'references'
p30
(dp31
S'song_unannotated'
p32
(lp33
(dp34
g5
S'140800'
p35
sasS'other'
p36
(lp37
(dp38
g5
S'672'
p39
sg10
VBest I Ever Had
p40
sassS'artist_id'
p41
I89
sg5
I1812
s.