(dp0
S'album'
p1
(dp2
S'name'
p3
S'Paper Trail'
p4
sS'id'
p5
I9960
ssS'description_refs'
p6
(dp7
sS'artist'
p8
S'T.I.'
p9
sS'title'
p10
S'Whatever You Like'
p11
sS'producers'
p12
(lp13
(dp14
g5
I27667
sg8
VJim Jonsin
p15
sasS'references'
p16
(dp17
sS'artist_id'
p18
I85
sg5
I1993
s.