(dp0
S'album'
p1
(dp2
S'name'
p3
S'Unorthodox Jukebox'
p4
sS'id'
p5
I22060
ssS'description_refs'
p6
(dp7
sS'artist'
p8
S'Bruno Mars'
p9
sS'title'
p10
S'When I Was Your Man'
p11
sS'producers'
p12
(lp13
(dp14
g5
I27679
sg8
VThe Smeezingtons
p15
sasS'references'
p16
(dp17
sS'artist_id'
p18
I500
sg5
I122542
s.