(dp0
S'description_refs'
p1
(dp2
sS'artist'
p3
S'Jagged Edge'
p4
sS'title'
p5
S'Where the Party At'
p6
sS'featured_artists'
p7
(lp8
(dp9
S'id'
p10
I148
sg3
VNelly
p11
sasS'references'
p12
(dp13
sS'artist_id'
p14
I869
sg10
I32995
s.