(dp0
S'album'
p1
(dp2
S'name'
p3
S'DS2'
p4
sS'id'
p5
I127543
ssS'description_refs'
p6
(dp7
S'artist'
p8
(lp9
(dp10
g3
VMetro Boomin
p11
sg5
S'33010'
p12
sa(dp13
g3
VDJ Esco
p14
sg5
S'49470'
p15
sassg8
S'Future'
p16
sS'title'
p17
S'Where Ya At'
p18
sS'featured_artists'
p19
(lp20
(dp21
g5
I130
sg8
VDrake
p22
sasS'producers'
p23
(lp24
(dp25
g5
I33010
sg8
VMetro Boomin
p26
sasS'references'
p27
(dp28
S'song_unannotated'
p29
(lp30
(dp31
g5
S'1866016'
p32
sa(dp33
g5
S'117558'
p34
sasS'song'
p35
(lp36
(dp37
g8
VFuture
p38
sg5
S'2214983'
p39
sg17
VRich $ex
p40
sassS'artist_id'
p41
I2197
sg5
I2213109
s.