(dp0
S'album'
p1
(dp2
S'name'
p3
S'Pattaya (Bande Originale)'
p4
sS'id'
p5
I143345
ssS'description_refs'
p6
(dp7
sS'artist'
p8
S'Post Malone'
p9
sS'title'
p10
S'White Iverson'
p11
sS'producers'
p12
(lp13
(dp14
g5
I15379
sg8
VFKi
p15
sasS'references'
p16
(dp17
sS'artist_id'
p18
I326362
sg5
I698675
s.