(dp0
S'album'
p1
(dp2
S'name'
p3
S'In My Lifetime, Vol. 1'
p4
sS'id'
p5
I4071
ssS'description_refs'
p6
(dp7
sS'artist'
p8
S'Jay Z'
p9
sS'title'
p10
S'Who You Wit II'
p11
sS'producers'
p12
(lp13
(dp14
g5
I12991
sg8
VSki Beatz
p15
sasS'writers'
p16
(lp17
(dp18
g5
I644796
sg8
VJ. Lorber
p19
sa(dp20
g5
I12991
sg8
VSki Beatz
p21
sasS'references'
p22
(dp23
g8
(lp24
(dp25
g3
VThe Jeff Lorber Fusion
p26
sg5
S'377659'
p27
sassS'artist_id'
p28
I2
sg5
I4186
s.