(dp0
S'album'
p1
(dp2
S'name'
p3
S'Who Let the Dogs Out'
p4
sS'id'
p5
I28298
ssS'description_refs'
p6
(dp7
sS'artist'
p8
S'Baha Men'
p9
sS'title'
p10
S'Who Let The Dogs Out'
p11
sS'producers'
p12
(lp13
(dp14
g5
I38040
sg8
VScott Brooks
p15
sasS'references'
p16
(dp17
S'song_unannotated'
p18
(lp19
(dp20
g5
S'1693595'
p21
sassS'artist_id'
p22
I38041
sg5
I51128
s.