(dp0
S'description_refs'
p1
(dp2
S'song_unannotated'
p3
(lp4
(dp5
S'id'
p6
S'1899926'
p7
sasS'artist'
p8
(lp9
(dp10
S'name'
p11
VCeCe Peniston
p12
sg6
S'359219'
p13
sassg8
S'DJ Mustard'
p14
sS'title'
p15
S"Whole Lotta Lovin'"
p16
sS'featured_artists'
p17
(lp18
(dp19
g6
I20185
sg8
VTravis Scott
p20
sasS'references'
p21
(dp22
g3
(lp23
(dp24
g6
S'1899926'
p25
sa(dp26
g6
S'167'
p27
sasS'song'
p28
(lp29
(dp30
g8
VTravis Scott
p31
sg6
S'2399225'
p32
sg15
VA-TEAM
p33
sasg8
(lp34
(dp35
g11
VRihanna
p36
sg6
S'89'
p37
sa(dp38
g11
VChris Brown
p39
sg6
S'438'
p40
sa(dp41
g11
VRihanna
p42
sg6
S'89'
p43
sa(dp44
g11
VYG
p45
sg6
S'1450'
p46
sa(dp47
g11
VSnoop Dogg
p48
sg6
S'46'
p49
sassS'artist_id'
p50
I29780
sg6
I2402796
s.