(dp0
S'album'
p1
(dp2
S'name'
p3
S'A Curious Tale Of Trials + Persons'
p4
sS'id'
p5
I129223
ssS'description_refs'
p6
(dp7
sS'artist'
p8
S'Little Simz'
p9
sS'title'
p10
S'Wings'
p11
sS'producers'
p12
(lp13
(dp14
g5
I82269
sg8
VIAMNOBODI
p15
sasS'references'
p16
(dp17
sS'artist_id'
p18
I166056
sg5
I2284049
s.