(dp0
S'album'
p1
(dp2
S'name'
p3
S'ANTi'
p4
sS'id'
p5
I132689
ssS'description_refs'
p6
(dp7
S'song_unannotated'
p8
(lp9
(dp10
g5
S'2378935'
p11
sasS'artist'
p12
(lp13
(dp14
g3
VTravis Scott
p15
sg5
S'20185'
p16
sa(dp17
g3
VThe Weeknd
p18
sg5
S'2358'
p19
sassg12
S'Rihanna'
p20
sS'title'
p21
S'Woo'
p22
sS'featured_artists'
p23
(lp24
(dp25
g5
I20185
sg12
VTravis Scott
p26
sasS'producers'
p27
(lp28
(dp29
g5
I39585
sg12
VKuk Harrell
p30
sa(dp31
g5
I21188
sg12
VHit-Boy
p32
sasS'writers'
p33
(lp34
(dp35
g5
I193020
sg12
VJean Baptiste
p36
sa(dp37
g5
I21188
sg12
VHit-Boy
p38
sa(dp39
g5
I20185
sg12
VTravis Scott
p40
sa(dp41
g5
I634166
sg12
VD. Rachel
p42
sa(dp43
g5
I1181
sg12
VThe-Dream
p44
sa(dp45
g5
I2358
sg12
VThe Weeknd
p46
sasS'references'
p47
(dp48
g8
(lp49
(dp50
g5
S'97160'
p51
sasg12
(lp52
(dp53
g3
VChris Brown
p54
sg5
S'438'
p55
sassS'artist_id'
p56
I89
sg5
I2413931
s.