(dp0
S'album'
p1
(dp2
S'name'
p3
S'ANTi'
p4
sS'id'
p5
I132689
ssS'description_refs'
p6
(dp7
S'song'
p8
(lp9
(dp10
S'title'
p11
VWhat's My Name?
p12
sS'id'
p13
S'1812'
p14
sS'artist'
p15
VRihanna
p16
sa(dp17
g11
VTake Care
p18
sg13
S'58344'
p19
sg15
VDrake
p20
sassS'artist'
p21
S'Rihanna'
p22
sS'title'
p23
S'Work'
p24
sS'featured_artists'
p25
(lp26
(dp27
g5
I130
sg21
VDrake
p28
sasS'producers'
p29
(lp30
(dp31
g5
I662
sg21
VBoi-1da
p32
sasS'writers'
p33
(lp34
(dp35
g5
I139040
sg21
VSevn Thomas
p36
sa(dp37
g5
I662
sg21
VBoi-1da
p38
sa(dp39
g5
I634300
sg21
VRich Stephenson
p40
sa(dp41
g5
I329739
sg21
VMonte Moir
p42
sa(dp43
g5
I47131
sg21
VPARTYNEXTDOOR
p44
sa(dp45
g5
I130
sg21
VDrake
p46
sa(dp47
g5
I55684
sg21
VAllen Ritter
p48
sasS'references'
p49
(dp50
S'song_unannotated'
p51
(lp52
(dp53
S'id'
p54
S'2413931'
p55
sasg21
(lp56
(dp57
g3
VRichie Stephens
p58
sg5
S'391657'
p59
sa(dp60
g3
VAlexander O'Neal
p61
sg5
S'8866'
p62
sa(dp63
g3
VPARTYNEXTDOOR
p64
sg5
S'47131'
p65
sa(dp66
g3
VJ. Cole
p67
sg5
S'69'
p68
sa(dp69
g3
VTravis Scott
p70
sg5
S'20185'
p71
sasS'song'
p72
(lp73
(dp74
S'artist'
p75
VAlexander O'Neal
p76
sg54
S'648314'
p77
sS'title'
p78
VIf You Were Here Tonight
p79
sa(dp80
g75
VDrake
p81
sg54
S'240199'
p82
sg78
VHeat of the Moment
p83
sa(dp84
g75
VPARTYNEXTDOOR
p85
sg54
S'2322011'
p86
sg78
VWait For You
p87
sa(dp88
g75
VJ. Cole
p89
sg54
S'1932'
p90
sg78
VIn The Morning
p91
sa(dp92
g75
VDrake
p93
sg54
S'55599'
p94
sg78
VThe Real Her
p95
sassS'artist_id'
p96
I89
sg5
I2398213
s.