(dp0
S'album'
p1
(dp2
S'name'
p3
S'Nothing Was the Same'
p4
sS'id'
p5
I40475
ssS'description_refs'
p6
(dp7
sS'artist'
p8
S'Drake'
p9
sS'title'
p10
S'Worst Behavior'
p11
sS'producers'
p12
(lp13
(dp14
g5
I27474
sg8
VDJ Dahi
p15
sasS'writers'
p16
(lp17
(dp18
g5
I17207
sg8
VDetail
p19
sa(dp20
g5
I27474
sg8
VDJ Dahi
p21
sa(dp22
g5
I451592
sg8
VAnthony Palman
p23
sasS'references'
p24
(dp25
S'song_unannotated'
p26
(lp27
(dp28
g5
S'217263'
p29
sa(dp30
g5
S'217270'
p31
sa(dp32
g5
S'140752'
p33
sa(dp34
g5
S'1655'
p35
sassS'artist_id'
p36
I130
sg5
I217266
s.