(dp0
S'description_refs'
p1
(dp2
S'artist'
p3
(lp4
(dp5
S'name'
p6
VPharrell Williams
p7
sS'id'
p8
S'110'
p9
sassg3
S'Missy Elliott'
p10
sS'title'
p11
S'WTF (Where They From)'
p12
sS'featured_artists'
p13
(lp14
(dp15
g8
I110
sg3
VPharrell Williams
p16
sasS'producers'
p17
(lp18
(dp19
g8
I110
sg3
VPharrell Williams
p20
sasS'writers'
p21
(lp22
(dp23
g8
I110
sg3
VPharrell Williams
p24
sasS'references'
p25
(dp26
S'song_unannotated'
p27
(lp28
(dp29
g8
S'33254'
p30
sa(dp31
g8
S'599424'
p32
sa(dp33
g8
S'33191'
p34
sa(dp35
g8
S'131845'
p36
sa(dp37
g8
S'128'
p38
sassS'artist_id'
p39
I1529
sg8
I2368201
s.