(dp0
S'description_refs'
p1
(dp2
sS'artist'
p3
S'DJ ReDo'
p4
sS'title'
p5
S"Yeah! - Usher feat. Lil' Jon & Ludacris (Confessions)(Instrumental)"
p6
sS'references'
p7
(dp8
sS'artist_id'
p9
I521815
sS'id'
p10
I2178795
s.