(dp0
S'album'
p1
(dp2
S'name'
p3
S'My Way'
p4
sS'id'
p5
I6112
ssS'description_refs'
p6
(dp7
sS'artist'
p8
S'Usher'
p9
sS'title'
p10
S'You Make Me Wanna...'
p11
sS'references'
p12
(dp13
sS'artist_id'
p14
I132
sg5
I290230
s.