(dp0
S'album'
p1
(dp2
S'name'
p3
S'Another Step'
p4
sS'id'
p5
I130628
ssS'description_refs'
p6
(dp7
sS'artist'
p8
S'Kim Wilde'
p9
sS'title'
p10
S"You Keep Me Hangin' On"
p11
sS'references'
p12
(dp13
sS'artist_id'
p14
I251704
sg5
I1200259
s.