(dp0
S'description_refs'
p1
(dp2
sS'artist'
p3
S'Seinabo Sey'
p4
sS'title'
p5
S'Younger (Kygo remix)'
p6
sS'featured_artists'
p7
(lp8
(dp9
S'id'
p10
I278311
sg3
VKygo
p11
sasS'references'
p12
(dp13
sS'artist_id'
p14
I102621
sg10
I1799343
s.