(dp0
S'description_refs'
p1
(dp2
sS'artist'
p3
S'Fetty Wap'
p4
sS'title'
p5
S'Zoovier (Remix)'
p6
sS'featured_artists'
p7
(lp8
(dp9
S'id'
p10
I331198
sg3
VNittDaGritt
p11
sasS'references'
p12
(dp13
S'song_unannotated'
p14
(lp15
(dp16
g10
S'167'
p17
sassS'artist_id'
p18
I216609
sg10
I1800164
s.